; Listing generated by Microsoft (R) Optimizing Compiler Version 14.00.50727.762 

	TITLE	e:\BW191\src\lib\moo\animation.cpp
	.686P
	.XMM
	include listing.inc
	.model	flat

INCLUDELIB MSVCRTD
INCLUDELIB OLDNAMES

PUBLIC	?STEAL_REFERENCE@?$ConstSmartPointer@VAnimationChannel@Moo@@@@2_NB ; ConstSmartPointer<Moo::AnimationChannel>::STEAL_REFERENCE
PUBLIC	?NEW_REFERENCE@?$ConstSmartPointer@VAnimationChannel@Moo@@@@2_NB ; ConstSmartPointer<Moo::AnimationChannel>::NEW_REFERENCE
PUBLIC	?STEAL_REFERENCE@?$ConstSmartPointer@VNode@Moo@@@@2_NB ; ConstSmartPointer<Moo::Node>::STEAL_REFERENCE
PUBLIC	?NEW_REFERENCE@?$ConstSmartPointer@VNode@Moo@@@@2_NB ; ConstSmartPointer<Moo::Node>::NEW_REFERENCE
PUBLIC	?STEAL_REFERENCE@?$ConstSmartPointer@VStreamedAnimation@Moo@@@@2_NB ; ConstSmartPointer<Moo::StreamedAnimation>::STEAL_REFERENCE
PUBLIC	?NEW_REFERENCE@?$ConstSmartPointer@VStreamedAnimation@Moo@@@@2_NB ; ConstSmartPointer<Moo::StreamedAnimation>::NEW_REFERENCE
PUBLIC	?STEAL_REFERENCE@?$ConstSmartPointer@VAnimation@Moo@@@@2_NB ; ConstSmartPointer<Moo::Animation>::STEAL_REFERENCE
PUBLIC	?NEW_REFERENCE@?$ConstSmartPointer@VAnimation@Moo@@@@2_NB ; ConstSmartPointer<Moo::Animation>::NEW_REFERENCE
PUBLIC	?STEAL_REFERENCE@?$ConstSmartPointer@VTracker@StreamedDataCache@Moo@@@@2_NB ; ConstSmartPointer<Moo::StreamedDataCache::Tracker>::STEAL_REFERENCE
PUBLIC	?NEW_REFERENCE@?$ConstSmartPointer@VTracker@StreamedDataCache@Moo@@@@2_NB ; ConstSmartPointer<Moo::StreamedDataCache::Tracker>::NEW_REFERENCE
PUBLIC	?NEW_REFERENCE@?$ConstSmartPointer@VMultiFileSystem@@@@2_NB ; ConstSmartPointer<MultiFileSystem>::NEW_REFERENCE
PUBLIC	?STEAL_REFERENCE@?$ConstSmartPointer@VMultiFileSystem@@@@2_NB ; ConstSmartPointer<MultiFileSystem>::STEAL_REFERENCE
_BSS	SEGMENT
_s_componentPriority DD 01H DUP (?)
_BSS	ENDS
;	COMDAT ?STEAL_REFERENCE@?$ConstSmartPointer@VMultiFileSystem@@@@2_NB
CONST	SEGMENT
?STEAL_REFERENCE@?$ConstSmartPointer@VMultiFileSystem@@@@2_NB DB 01H ; ConstSmartPointer<MultiFileSystem>::STEAL_REFERENCE
CONST	ENDS
;	COMDAT ?NEW_REFERENCE@?$ConstSmartPointer@VMultiFileSystem@@@@2_NB
CONST	SEGMENT
?NEW_REFERENCE@?$ConstSmartPointer@VMultiFileSystem@@@@2_NB DB 00H ; ConstSmartPointer<MultiFileSystem>::NEW_REFERENCE
CONST	ENDS
;	COMDAT ?NEW_REFERENCE@?$ConstSmartPointer@VTracker@StreamedDataCache@Moo@@@@2_NB
CONST	SEGMENT
?NEW_REFERENCE@?$ConstSmartPointer@VTracker@StreamedDataCache@Moo@@@@2_NB DB 00H ; ConstSmartPointer<Moo::StreamedDataCache::Tracker>::NEW_REFERENCE
CONST	ENDS
;	COMDAT ?STEAL_REFERENCE@?$ConstSmartPointer@VTracker@StreamedDataCache@Moo@@@@2_NB
CONST	SEGMENT
?STEAL_REFERENCE@?$ConstSmartPointer@VTracker@StreamedDataCache@Moo@@@@2_NB DB 01H ; ConstSmartPointer<Moo::StreamedDataCache::Tracker>::STEAL_REFERENCE
CONST	ENDS
;	COMDAT ?NEW_REFERENCE@?$ConstSmartPointer@VAnimation@Moo@@@@2_NB
CONST	SEGMENT
?NEW_REFERENCE@?$ConstSmartPointer@VAnimation@Moo@@@@2_NB DB 00H ; ConstSmartPointer<Moo::Animation>::NEW_REFERENCE
CONST	ENDS
;	COMDAT ?STEAL_REFERENCE@?$ConstSmartPointer@VAnimation@Moo@@@@2_NB
CONST	SEGMENT
?STEAL_REFERENCE@?$ConstSmartPointer@VAnimation@Moo@@@@2_NB DB 01H ; ConstSmartPointer<Moo::Animation>::STEAL_REFERENCE
CONST	ENDS
;	COMDAT ?NEW_REFERENCE@?$ConstSmartPointer@VStreamedAnimation@Moo@@@@2_NB
CONST	SEGMENT
?NEW_REFERENCE@?$ConstSmartPointer@VStreamedAnimation@Moo@@@@2_NB DB 00H ; ConstSmartPointer<Moo::StreamedAnimation>::NEW_REFERENCE
CONST	ENDS
;	COMDAT ?STEAL_REFERENCE@?$ConstSmartPointer@VStreamedAnimation@Moo@@@@2_NB
CONST	SEGMENT
?STEAL_REFERENCE@?$ConstSmartPointer@VStreamedAnimation@Moo@@@@2_NB DB 01H ; ConstSmartPointer<Moo::StreamedAnimation>::STEAL_REFERENCE
CONST	ENDS
;	COMDAT ?NEW_REFERENCE@?$ConstSmartPointer@VNode@Moo@@@@2_NB
CONST	SEGMENT
?NEW_REFERENCE@?$ConstSmartPointer@VNode@Moo@@@@2_NB DB 00H ; ConstSmartPointer<Moo::Node>::NEW_REFERENCE
CONST	ENDS
;	COMDAT ?STEAL_REFERENCE@?$ConstSmartPointer@VNode@Moo@@@@2_NB
CONST	SEGMENT
?STEAL_REFERENCE@?$ConstSmartPointer@VNode@Moo@@@@2_NB DB 01H ; ConstSmartPointer<Moo::Node>::STEAL_REFERENCE
CONST	ENDS
;	COMDAT ?NEW_REFERENCE@?$ConstSmartPointer@VAnimationChannel@Moo@@@@2_NB
CONST	SEGMENT
?NEW_REFERENCE@?$ConstSmartPointer@VAnimationChannel@Moo@@@@2_NB DB 00H ; ConstSmartPointer<Moo::AnimationChannel>::NEW_REFERENCE
CONST	ENDS
;	COMDAT ?STEAL_REFERENCE@?$ConstSmartPointer@VAnimationChannel@Moo@@@@2_NB
CONST	SEGMENT
?STEAL_REFERENCE@?$ConstSmartPointer@VAnimationChannel@Moo@@@@2_NB DB 01H ; ConstSmartPointer<Moo::AnimationChannel>::STEAL_REFERENCE
CONST	ENDS
PUBLIC	?totalTime@Animation@Moo@@QAEXM@Z		; Moo::Animation::totalTime
EXTRN	__fltused:DWORD
EXTRN	__RTC_Shutdown:PROC
EXTRN	__RTC_InitBase:PROC
;	COMDAT rtc$TMZ
; File e:\bw191\src\lib\moo\animation.ipp
rtc$TMZ	SEGMENT
__RTC_Shutdown.rtc$TMZ DD FLAT:__RTC_Shutdown
rtc$TMZ	ENDS
;	COMDAT rtc$IMZ
rtc$IMZ	SEGMENT
__RTC_InitBase.rtc$IMZ DD FLAT:__RTC_InitBase
; Function compile flags: /Odtp /RTCsu /ZI
rtc$IMZ	ENDS
;	COMDAT ?totalTime@Animation@Moo@@QAEXM@Z
_TEXT	SEGMENT
_this$ = -8						; size = 4
_time$ = 8						; size = 4
?totalTime@Animation@Moo@@QAEXM@Z PROC			; Moo::Animation::totalTime, COMDAT
; _this$ = ecx
; Line 27
  00000	55		 push	 ebp
  00001	8b ec		 mov	 ebp, esp
  00003	81 ec cc 00 00
	00		 sub	 esp, 204		; 000000ccH
  00009	53		 push	 ebx
  0000a	56		 push	 esi
  0000b	57		 push	 edi
  0000c	51		 push	 ecx
  0000d	8d bd 34 ff ff
	ff		 lea	 edi, DWORD PTR [ebp-204]
  00013	b9 33 00 00 00	 mov	 ecx, 51			; 00000033H
  00018	b8 cc cc cc cc	 mov	 eax, -858993460		; ccccccccH
  0001d	f3 ab		 rep stosd
  0001f	59		 pop	 ecx
  00020	89 4d f8	 mov	 DWORD PTR _this$[ebp], ecx
; Line 28
  00023	8b 45 f8	 mov	 eax, DWORD PTR _this$[ebp]
  00026	f3 0f 10 45 08	 movss	 xmm0, DWORD PTR _time$[ebp]
  0002b	f3 0f 11 40 08	 movss	 DWORD PTR [eax+8], xmm0
; Line 29
  00030	5f		 pop	 edi
  00031	5e		 pop	 esi
  00032	5b		 pop	 ebx
  00033	8b e5		 mov	 esp, ebp
  00035	5d		 pop	 ebp
  00036	c2 04 00	 ret	 4
?totalTime@Animation@Moo@@QAEXM@Z ENDP			; Moo::Animation::totalTime
_TEXT	ENDS
PUBLIC	?totalTime@Animation@Moo@@QBEMXZ		; Moo::Animation::totalTime
; Function compile flags: /Odtp /RTCsu /ZI
;	COMDAT ?totalTime@Animation@Moo@@QBEMXZ
_TEXT	SEGMENT
_this$ = -8						; size = 4
?totalTime@Animation@Moo@@QBEMXZ PROC			; Moo::Animation::totalTime, COMDAT
; _this$ = ecx
; Line 33
  00000	55		 push	 ebp
  00001	8b ec		 mov	 ebp, esp
  00003	81 ec cc 00 00
	00		 sub	 esp, 204		; 000000ccH
  00009	53		 push	 ebx
  0000a	56		 push	 esi
  0000b	57		 push	 edi
  0000c	51		 push	 ecx
  0000d	8d bd 34 ff ff
	ff		 lea	 edi, DWORD PTR [ebp-204]
  00013	b9 33 00 00 00	 mov	 ecx, 51			; 00000033H
  00018	b8 cc cc cc cc	 mov	 eax, -858993460		; ccccccccH
  0001d	f3 ab		 rep stosd
  0001f	59		 pop	 ecx
  00020	89 4d f8	 mov	 DWORD PTR _this$[ebp], ecx
; Line 34
  00023	8b 45 f8	 mov	 eax, DWORD PTR _this$[ebp]
  00026	d9 40 08	 fld	 DWORD PTR [eax+8]
; Line 35
  00029	5f		 pop	 edi
  0002a	5e		 pop	 esi
  0002b	5b		 pop	 ebx
  0002c	8b e5		 mov	 esp, ebp
  0002e	5d		 pop	 ebp
  0002f	c3		 ret	 0
?totalTime@Animation@Moo@@QBEMXZ ENDP			; Moo::Animation::totalTime
_TEXT	ENDS
PUBLIC	?identifier@Animation@Moo@@QBE?BV?$basic_string@DU?$char_traits@D@std@@V?$allocator@D@2@@std@@XZ ; Moo::Animation::identifier
EXTRN	__imp_??0?$basic_string@DU?$char_traits@D@std@@V?$allocator@D@2@@std@@QAE@ABV01@@Z:PROC
EXTRN	__RTC_CheckEsp:PROC
; Function compile flags: /Odtp /RTCsu /ZI
;	COMDAT ?identifier@Animation@Moo@@QBE?BV?$basic_string@DU?$char_traits@D@std@@V?$allocator@D@2@@std@@XZ
_TEXT	SEGMENT
$T143999 = -212						; size = 4
_this$ = -8						; size = 4
___$ReturnUdt$ = 8					; size = 4
?identifier@Animation@Moo@@QBE?BV?$basic_string@DU?$char_traits@D@std@@V?$allocator@D@2@@std@@XZ PROC ; Moo::Animation::identifier, COMDAT
; _this$ = ecx
; Line 39
  00000	55		 push	 ebp
  00001	8b ec		 mov	 ebp, esp
  00003	81 ec d8 00 00
	00		 sub	 esp, 216		; 000000d8H
  00009	53		 push	 ebx
  0000a	56		 push	 esi
  0000b	57		 push	 edi
  0000c	51		 push	 ecx
  0000d	8d bd 28 ff ff
	ff		 lea	 edi, DWORD PTR [ebp-216]
  00013	b9 36 00 00 00	 mov	 ecx, 54			; 00000036H
  00018	b8 cc cc cc cc	 mov	 eax, -858993460		; ccccccccH
  0001d	f3 ab		 rep stosd
  0001f	59		 pop	 ecx
  00020	89 4d f8	 mov	 DWORD PTR _this$[ebp], ecx
  00023	c7 85 2c ff ff
	ff 00 00 00 00	 mov	 DWORD PTR $T143999[ebp], 0
; Line 40
  0002d	8b 45 f8	 mov	 eax, DWORD PTR _this$[ebp]
  00030	83 c0 20	 add	 eax, 32			; 00000020H
  00033	8b f4		 mov	 esi, esp
  00035	50		 push	 eax
  00036	8b 4d 08	 mov	 ecx, DWORD PTR ___$ReturnUdt$[ebp]
  00039	ff 15 00 00 00
	00		 call	 DWORD PTR __imp_??0?$basic_string@DU?$char_traits@D@std@@V?$allocator@D@2@@std@@QAE@ABV01@@Z
  0003f	3b f4		 cmp	 esi, esp
  00041	e8 00 00 00 00	 call	 __RTC_CheckEsp
  00046	8b 8d 2c ff ff
	ff		 mov	 ecx, DWORD PTR $T143999[ebp]
  0004c	83 c9 01	 or	 ecx, 1
  0004f	89 8d 2c ff ff
	ff		 mov	 DWORD PTR $T143999[ebp], ecx
  00055	8b 45 08	 mov	 eax, DWORD PTR ___$ReturnUdt$[ebp]
; Line 41
  00058	5f		 pop	 edi
  00059	5e		 pop	 esi
  0005a	5b		 pop	 ebx
  0005b	81 c4 d8 00 00
	00		 add	 esp, 216		; 000000d8H
  00061	3b ec		 cmp	 ebp, esp
  00063	e8 00 00 00 00	 call	 __RTC_CheckEsp
  00068	8b e5		 mov	 esp, ebp
  0006a	5d		 pop	 ebp
  0006b	c2 04 00	 ret	 4
?identifier@Animation@Moo@@QBE?BV?$basic_string@DU?$char_traits@D@std@@V?$allocator@D@2@@std@@XZ ENDP ; Moo::Animation::identifier
_TEXT	ENDS
PUBLIC	?identifier@Animation@Moo@@QAEXABV?$basic_string@DU?$char_traits@D@std@@V?$allocator@D@2@@std@@@Z ; Moo::Animation::identifier
EXTRN	__imp_??4?$basic_string@DU?$char_traits@D@std@@V?$allocator@D@2@@std@@QAEAAV01@ABV01@@Z:PROC
; Function compile flags: /Odtp /RTCsu /ZI
;	COMDAT ?identifier@Animation@Moo@@QAEXABV?$basic_string@DU?$char_traits@D@std@@V?$allocator@D@2@@std@@@Z
_TEXT	SEGMENT
_this$ = -8						; size = 4
_identifier$ = 8					; size = 4
?identifier@Animation@Moo@@QAEXABV?$basic_string@DU?$char_traits@D@std@@V?$allocator@D@2@@std@@@Z PROC ; Moo::Animation::identifier, COMDAT
; _this$ = ecx
; Line 45
  00000	55		 push	 ebp
  00001	8b ec		 mov	 ebp, esp
  00003	81 ec cc 00 00
	00		 sub	 esp, 204		; 000000ccH
  00009	53		 push	 ebx
  0000a	56		 push	 esi
  0000b	57		 push	 edi
  0000c	51		 push	 ecx
  0000d	8d bd 34 ff ff
	ff		 lea	 edi, DWORD PTR [ebp-204]
  00013	b9 33 00 00 00	 mov	 ecx, 51			; 00000033H
  00018	b8 cc cc cc cc	 mov	 eax, -858993460		; ccccccccH
  0001d	f3 ab		 rep stosd
  0001f	59		 pop	 ecx
  00020	89 4d f8	 mov	 DWORD PTR _this$[ebp], ecx
; Line 46
  00023	8b f4		 mov	 esi, esp
  00025	8b 45 08	 mov	 eax, DWORD PTR _identifier$[ebp]
  00028	50		 push	 eax
  00029	8b 4d f8	 mov	 ecx, DWORD PTR _this$[ebp]
  0002c	83 c1 20	 add	 ecx, 32			; 00000020H
  0002f	ff 15 00 00 00
	00		 call	 DWORD PTR __imp_??4?$basic_string@DU?$char_traits@D@std@@V?$allocator@D@2@@std@@QAEAAV01@ABV01@@Z
  00035	3b f4		 cmp	 esi, esp
  00037	e8 00 00 00 00	 call	 __RTC_CheckEsp
; Line 47
  0003c	5f		 pop	 edi
  0003d	5e		 pop	 esi
  0003e	5b		 pop	 ebx
  0003f	81 c4 cc 00 00
	00		 add	 esp, 204		; 000000ccH
  00045	3b ec		 cmp	 ebp, esp
  00047	e8 00 00 00 00	 call	 __RTC_CheckEsp
  0004c	8b e5		 mov	 esp, ebp
  0004e	5d		 pop	 ebp
  0004f	c2 04 00	 ret	 4
?identifier@Animation@Moo@@QAEXABV?$basic_string@DU?$char_traits@D@std@@V?$allocator@D@2@@std@@@Z ENDP ; Moo::Animation::identifier
_TEXT	ENDS
PUBLIC	?internalIdentifier@Animation@Moo@@QBE?BV?$basic_string@DU?$char_traits@D@std@@V?$allocator@D@2@@std@@XZ ; Moo::Animation::internalIdentifier
; Function compile flags: /Odtp /RTCsu /ZI
;	COMDAT ?internalIdentifier@Animation@Moo@@QBE?BV?$basic_string@DU?$char_traits@D@std@@V?$allocator@D@2@@std@@XZ
_TEXT	SEGMENT
$T144007 = -212						; size = 4
_this$ = -8						; size = 4
___$ReturnUdt$ = 8					; size = 4
?internalIdentifier@Animation@Moo@@QBE?BV?$basic_string@DU?$char_traits@D@std@@V?$allocator@D@2@@std@@XZ PROC ; Moo::Animation::internalIdentifier, COMDAT
; _this$ = ecx
; Line 51
  00000	55		 push	 ebp
  00001	8b ec		 mov	 ebp, esp
  00003	81 ec d8 00 00
	00		 sub	 esp, 216		; 000000d8H
  00009	53		 push	 ebx
  0000a	56		 push	 esi
  0000b	57		 push	 edi
  0000c	51		 push	 ecx
  0000d	8d bd 28 ff ff
	ff		 lea	 edi, DWORD PTR [ebp-216]
  00013	b9 36 00 00 00	 mov	 ecx, 54			; 00000036H
  00018	b8 cc cc cc cc	 mov	 eax, -858993460		; ccccccccH
  0001d	f3 ab		 rep stosd
  0001f	59		 pop	 ecx
  00020	89 4d f8	 mov	 DWORD PTR _this$[ebp], ecx
  00023	c7 85 2c ff ff
	ff 00 00 00 00	 mov	 DWORD PTR $T144007[ebp], 0
; Line 52
  0002d	8b 45 f8	 mov	 eax, DWORD PTR _this$[ebp]
  00030	83 c0 40	 add	 eax, 64			; 00000040H
  00033	8b f4		 mov	 esi, esp
  00035	50		 push	 eax
  00036	8b 4d 08	 mov	 ecx, DWORD PTR ___$ReturnUdt$[ebp]
  00039	ff 15 00 00 00
	00		 call	 DWORD PTR __imp_??0?$basic_string@DU?$char_traits@D@std@@V?$allocator@D@2@@std@@QAE@ABV01@@Z
  0003f	3b f4		 cmp	 esi, esp
  00041	e8 00 00 00 00	 call	 __RTC_CheckEsp
  00046	8b 8d 2c ff ff
	ff		 mov	 ecx, DWORD PTR $T144007[ebp]
  0004c	83 c9 01	 or	 ecx, 1
  0004f	89 8d 2c ff ff
	ff		 mov	 DWORD PTR $T144007[ebp], ecx
  00055	8b 45 08	 mov	 eax, DWORD PTR ___$ReturnUdt$[ebp]
; Line 53
  00058	5f		 pop	 edi
  00059	5e		 pop	 esi
  0005a	5b		 pop	 ebx
  0005b	81 c4 d8 00 00
	00		 add	 esp, 216		; 000000d8H
  00061	3b ec		 cmp	 ebp, esp
  00063	e8 00 00 00 00	 call	 __RTC_CheckEsp
  00068	8b e5		 mov	 esp, ebp
  0006a	5d		 pop	 ebp
  0006b	c2 04 00	 ret	 4
?internalIdentifier@Animation@Moo@@QBE?BV?$basic_string@DU?$char_traits@D@std@@V?$allocator@D@2@@std@@XZ ENDP ; Moo::Animation::internalIdentifier
_TEXT	ENDS
PUBLIC	?internalIdentifier@Animation@Moo@@QAEXABV?$basic_string@DU?$char_traits@D@std@@V?$allocator@D@2@@std@@@Z ; Moo::Animation::internalIdentifier
; Function compile flags: /Odtp /RTCsu /ZI
;	COMDAT ?internalIdentifier@Animation@Moo@@QAEXABV?$basic_string@DU?$char_traits@D@std@@V?$allocator@D@2@@std@@@Z
_TEXT	SEGMENT
_this$ = -8						; size = 4
_ii$ = 8						; size = 4
?internalIdentifier@Animation@Moo@@QAEXABV?$basic_string@DU?$char_traits@D@std@@V?$allocator@D@2@@std@@@Z PROC ; Moo::Animation::internalIdentifier, COMDAT
; _this$ = ecx
; Line 58
  00000	55		 push	 ebp
  00001	8b ec		 mov	 ebp, esp
  00003	81 ec cc 00 00
	00		 sub	 esp, 204		; 000000ccH
  00009	53		 push	 ebx
  0000a	56		 push	 esi
  0000b	57		 push	 edi
  0000c	51		 push	 ecx
  0000d	8d bd 34 ff ff
	ff		 lea	 edi, DWORD PTR [ebp-204]
  00013	b9 33 00 00 00	 mov	 ecx, 51			; 00000033H
  00018	b8 cc cc cc cc	 mov	 eax, -858993460		; ccccccccH
  0001d	f3 ab		 rep stosd
  0001f	59		 pop	 ecx
  00020	89 4d f8	 mov	 DWORD PTR _this$[ebp], ecx
; Line 59
  00023	8b f4		 mov	 esi, esp
  00025	8b 45 08	 mov	 eax, DWORD PTR _ii$[ebp]
  00028	50		 push	 eax
  00029	8b 4d f8	 mov	 ecx, DWORD PTR _this$[ebp]
  0002c	83 c1 40	 add	 ecx, 64			; 00000040H
  0002f	ff 15 00 00 00
	00		 call	 DWORD PTR __imp_??4?$basic_string@DU?$char_traits@D@std@@V?$allocator@D@2@@std@@QAEAAV01@ABV01@@Z
  00035	3b f4		 cmp	 esi, esp
  00037	e8 00 00 00 00	 call	 __RTC_CheckEsp
; Line 60
  0003c	5f		 pop	 edi
  0003d	5e		 pop	 esi
  0003e	5b		 pop	 ebx
  0003f	81 c4 cc 00 00
	00		 add	 esp, 204		; 000000ccH
  00045	3b ec		 cmp	 ebp, esp
  00047	e8 00 00 00 00	 call	 __RTC_CheckEsp
  0004c	8b e5		 mov	 esp, ebp
  0004e	5d		 pop	 ebp
  0004f	c2 04 00	 ret	 4
?internalIdentifier@Animation@Moo@@QAEXABV?$basic_string@DU?$char_traits@D@std@@V?$allocator@D@2@@std@@@Z ENDP ; Moo::Animation::internalIdentifier
_TEXT	ENDS
PUBLIC	??1?$_Vector_const_iterator@UBlendedAnimation@Moo@@V?$allocator@UBlendedAnimation@Moo@@@std@@@std@@QAE@XZ ; std::_Vector_const_iterator<Moo::BlendedAnimation,std::allocator<Moo::BlendedAnimation> >::~_Vector_const_iterator<Moo::BlendedAnimation,std::allocator<Moo::BlendedAnimation> >
PUBLIC	?animate@Animation@Moo@@SAXV?$_Vector_const_iterator@UBlendedAnimation@Moo@@V?$allocator@UBlendedAnimation@Moo@@@std@@@std@@0@Z ; Moo::Animation::animate
PUBLIC	?begin@?$vector@UBlendedAnimation@Moo@@V?$allocator@UBlendedAnimation@Moo@@@std@@@std@@QBE?AV?$_Vector_const_iterator@UBlendedAnimation@Moo@@V?$allocator@UBlendedAnimation@Moo@@@std@@@2@XZ ; std::vector<Moo::BlendedAnimation,std::allocator<Moo::BlendedAnimation> >::begin
PUBLIC	?end@?$vector@UBlendedAnimation@Moo@@V?$allocator@UBlendedAnimation@Moo@@@std@@@std@@QBE?AV?$_Vector_const_iterator@UBlendedAnimation@Moo@@V?$allocator@UBlendedAnimation@Moo@@@std@@@2@XZ ; std::vector<Moo::BlendedAnimation,std::allocator<Moo::BlendedAnimation> >::end
PUBLIC	?animate@Animation@Moo@@SAXABV?$vector@UBlendedAnimation@Moo@@V?$allocator@UBlendedAnimation@Moo@@@std@@@std@@@Z ; Moo::Animation::animate
EXTRN	___security_cookie:DWORD
EXTRN	___CxxFrameHandler3:PROC
EXTRN	@__security_check_cookie@4:PROC
;	COMDAT xdata$x
xdata$x	SEGMENT
__unwindtable$?animate@Animation@Moo@@SAXABV?$vector@UBlendedAnimation@Moo@@V?$allocator@UBlendedAnimation@Moo@@@std@@@std@@@Z DD 0ffffffffH
	DD	FLAT:__unwindfunclet$?animate@Animation@Moo@@SAXABV?$vector@UBlendedAnimation@Moo@@V?$allocator@UBlendedAnimation@Moo@@@std@@@std@@@Z$0
__ehfuncinfo$?animate@Animation@Moo@@SAXABV?$vector@UBlendedAnimation@Moo@@V?$allocator@UBlendedAnimation@Moo@@@std@@@std@@@Z DD 019930522H
	DD	01H
	DD	FLAT:__unwindtable$?animate@Animation@Moo@@SAXABV?$vector@UBlendedAnimation@Moo@@V?$allocator@UBlendedAnimation@Moo@@@std@@@std@@@Z
	DD	2 DUP(00H)
	DD	2 DUP(00H)
	DD	00H
	DD	01H
; Function compile flags: /Odtp /RTCsu /ZI
xdata$x	ENDS
;	COMDAT ?animate@Animation@Moo@@SAXABV?$vector@UBlendedAnimation@Moo@@V?$allocator@UBlendedAnimation@Moo@@@std@@@std@@@Z
_TEXT	SEGMENT
tv95 = -240						; size = 4
tv92 = -236						; size = 4
tv128 = -232						; size = 4
$T144013 = -224						; size = 4
$T144014 = -212						; size = 4
__$EHRec$ = -12						; size = 12
_alist$ = 8						; size = 4
?animate@Animation@Moo@@SAXABV?$vector@UBlendedAnimation@Moo@@V?$allocator@UBlendedAnimation@Moo@@@std@@@std@@@Z PROC ; Moo::Animation::animate, COMDAT
; Line 65
  00000	55		 push	 ebp
  00001	8b ec		 mov	 ebp, esp
  00003	6a ff		 push	 -1
  00005	68 00 00 00 00	 push	 __ehhandler$?animate@Animation@Moo@@SAXABV?$vector@UBlendedAnimation@Moo@@V?$allocator@UBlendedAnimation@Moo@@@std@@@std@@@Z
  0000a	64 a1 00 00 00
	00		 mov	 eax, DWORD PTR fs:0
  00010	50		 push	 eax
  00011	81 ec e4 00 00
	00		 sub	 esp, 228		; 000000e4H
  00017	53		 push	 ebx
  00018	56		 push	 esi
  00019	57		 push	 edi
  0001a	8d bd 10 ff ff
	ff		 lea	 edi, DWORD PTR [ebp-240]
  00020	b9 39 00 00 00	 mov	 ecx, 57			; 00000039H
  00025	b8 cc cc cc cc	 mov	 eax, -858993460		; ccccccccH
  0002a	f3 ab		 rep stosd
  0002c	a1 00 00 00 00	 mov	 eax, DWORD PTR ___security_cookie
  00031	33 c5		 xor	 eax, ebp
  00033	50		 push	 eax
  00034	8d 45 f4	 lea	 eax, DWORD PTR __$EHRec$[ebp]
  00037	64 a3 00 00 00
	00		 mov	 DWORD PTR fs:0, eax
; Line 66
  0003d	83 ec 0c	 sub	 esp, 12			; 0000000cH
  00040	8b c4		 mov	 eax, esp
  00042	89 a5 20 ff ff
	ff		 mov	 DWORD PTR $T144013[ebp], esp
  00048	50		 push	 eax
  00049	8b 4d 08	 mov	 ecx, DWORD PTR _alist$[ebp]
  0004c	e8 00 00 00 00	 call	 ?end@?$vector@UBlendedAnimation@Moo@@V?$allocator@UBlendedAnimation@Moo@@@std@@@std@@QBE?AV?$_Vector_const_iterator@UBlendedAnimation@Moo@@V?$allocator@UBlendedAnimation@Moo@@@std@@@2@XZ ; std::vector<Moo::BlendedAnimation,std::allocator<Moo::BlendedAnimation> >::end
  00051	89 85 18 ff ff
	ff		 mov	 DWORD PTR tv128[ebp], eax
  00057	8b 8d 18 ff ff
	ff		 mov	 ecx, DWORD PTR tv128[ebp]
  0005d	89 8d 14 ff ff
	ff		 mov	 DWORD PTR tv92[ebp], ecx
  00063	c7 45 fc 00 00
	00 00		 mov	 DWORD PTR __$EHRec$[ebp+8], 0
  0006a	83 ec 0c	 sub	 esp, 12			; 0000000cH
  0006d	8b d4		 mov	 edx, esp
  0006f	89 a5 2c ff ff
	ff		 mov	 DWORD PTR $T144014[ebp], esp
  00075	52		 push	 edx
  00076	8b 4d 08	 mov	 ecx, DWORD PTR _alist$[ebp]
  00079	e8 00 00 00 00	 call	 ?begin@?$vector@UBlendedAnimation@Moo@@V?$allocator@UBlendedAnimation@Moo@@@std@@@std@@QBE?AV?$_Vector_const_iterator@UBlendedAnimation@Moo@@V?$allocator@UBlendedAnimation@Moo@@@std@@@2@XZ ; std::vector<Moo::BlendedAnimation,std::allocator<Moo::BlendedAnimation> >::begin
  0007e	89 85 10 ff ff
	ff		 mov	 DWORD PTR tv95[ebp], eax
  00084	c7 45 fc ff ff
	ff ff		 mov	 DWORD PTR __$EHRec$[ebp+8], -1
  0008b	e8 00 00 00 00	 call	 ?animate@Animation@Moo@@SAXV?$_Vector_const_iterator@UBlendedAnimation@Moo@@V?$allocator@UBlendedAnimation@Moo@@@std@@@std@@0@Z ; Moo::Animation::animate
  00090	83 c4 18	 add	 esp, 24			; 00000018H
; Line 67
  00093	8b 4d f4	 mov	 ecx, DWORD PTR __$EHRec$[ebp]
  00096	64 89 0d 00 00
	00 00		 mov	 DWORD PTR fs:0, ecx
  0009d	59		 pop	 ecx
  0009e	5f		 pop	 edi
  0009f	5e		 pop	 esi
  000a0	5b		 pop	 ebx
  000a1	81 c4 f0 00 00
	00		 add	 esp, 240		; 000000f0H
  000a7	3b ec		 cmp	 ebp, esp
  000a9	e8 00 00 00 00	 call	 __RTC_CheckEsp
  000ae	8b e5		 mov	 esp, ebp
  000b0	5d		 pop	 ebp
  000b1	c3		 ret	 0
_TEXT	ENDS
;	COMDAT text$x
text$x	SEGMENT
__unwindfunclet$?animate@Animation@Moo@@SAXABV?$vector@UBlendedAnimation@Moo@@V?$allocator@UBlendedAnimation@Moo@@@std@@@std@@@Z$0:
  00000	8b 8d 20 ff ff
	ff		 mov	 ecx, DWORD PTR $T144013[ebp]
  00006	e9 00 00 00 00	 jmp	 ??1?$_Vector_const_iterator@UBlendedAnimation@Moo@@V?$allocator@UBlendedAnimation@Moo@@@std@@@std@@QAE@XZ
__ehhandler$?animate@Animation@Moo@@SAXABV?$vector@UBlendedAnimation@Moo@@V?$allocator@UBlendedAnimation@Moo@@@std@@@std@@@Z:
  0000b	8b 54 24 08	 mov	 edx, DWORD PTR [esp+8]
  0000f	8d 42 0c	 lea	 eax, DWORD PTR [edx+12]
  00012	8b 8a 0c ff ff
	ff		 mov	 ecx, DWORD PTR [edx-244]
  00018	33 c8		 xor	 ecx, eax
  0001a	e8 00 00 00 00	 call	 @__security_check_cookie@4
  0001f	b8 00 00 00 00	 mov	 eax, OFFSET __ehfuncinfo$?animate@Animation@Moo@@SAXABV?$vector@UBlendedAnimation@Moo@@V?$allocator@UBlendedAnimation@Moo@@@std@@@std@@@Z
  00024	e9 00 00 00 00	 jmp	 ___CxxFrameHandler3
text$x	ENDS
?animate@Animation@Moo@@SAXABV?$vector@UBlendedAnimation@Moo@@V?$allocator@UBlendedAnimation@Moo@@@std@@@std@@@Z ENDP ; Moo::Animation::animate
PUBLIC	??1?$_Ranit@UBlendedAnimation@Moo@@HPBU12@ABU12@@std@@QAE@XZ ; std::_Ranit<Moo::BlendedAnimation,int,Moo::BlendedAnimation const *,Moo::BlendedAnimation const &>::~_Ranit<Moo::BlendedAnimation,int,Moo::BlendedAnimation const *,Moo::BlendedAnimation const &>
; Function compile flags: /Odtp /RTCsu /ZI
;	COMDAT ??1?$_Vector_const_iterator@UBlendedAnimation@Moo@@V?$allocator@UBlendedAnimation@Moo@@@std@@@std@@QAE@XZ
_TEXT	SEGMENT
_this$ = -8						; size = 4
??1?$_Vector_const_iterator@UBlendedAnimation@Moo@@V?$allocator@UBlendedAnimation@Moo@@@std@@@std@@QAE@XZ PROC ; std::_Vector_const_iterator<Moo::BlendedAnimation,std::allocator<Moo::BlendedAnimation> >::~_Vector_const_iterator<Moo::BlendedAnimation,std::allocator<Moo::BlendedAnimation> >, COMDAT
; _this$ = ecx
  00000	55		 push	 ebp
  00001	8b ec		 mov	 ebp, esp
  00003	81 ec cc 00 00
	00		 sub	 esp, 204		; 000000ccH
  00009	53		 push	 ebx
  0000a	56		 push	 esi
  0000b	57		 push	 edi
  0000c	51		 push	 ecx
  0000d	8d bd 34 ff ff
	ff		 lea	 edi, DWORD PTR [ebp-204]
  00013	b9 33 00 00 00	 mov	 ecx, 51			; 00000033H
  00018	b8 cc cc cc cc	 mov	 eax, -858993460		; ccccccccH
  0001d	f3 ab		 rep stosd
  0001f	59		 pop	 ecx
  00020	89 4d f8	 mov	 DWORD PTR _this$[ebp], ecx
  00023	8b 4d f8	 mov	 ecx, DWORD PTR _this$[ebp]
  00026	e8 00 00 00 00	 call	 ??1?$_Ranit@UBlendedAnimation@Moo@@HPBU12@ABU12@@std@@QAE@XZ
  0002b	5f		 pop	 edi
  0002c	5e		 pop	 esi
  0002d	5b		 pop	 ebx
  0002e	81 c4 cc 00 00
	00		 add	 esp, 204		; 000000ccH
  00034	3b ec		 cmp	 ebp, esp
  00036	e8 00 00 00 00	 call	 __RTC_CheckEsp
  0003b	8b e5		 mov	 esp, ebp
  0003d	5d		 pop	 ebp
  0003e	c3		 ret	 0
??1?$_Vector_const_iterator@UBlendedAnimation@Moo@@V?$allocator@UBlendedAnimation@Moo@@@std@@@std@@QAE@XZ ENDP ; std::_Vector_const_iterator<Moo::BlendedAnimation,std::allocator<Moo::BlendedAnimation> >::~_Vector_const_iterator<Moo::BlendedAnimation,std::allocator<Moo::BlendedAnimation> >
_TEXT	ENDS
PUBLIC	??1_Iterator_base@std@@QAE@XZ			; std::_Iterator_base::~_Iterator_base
; Function compile flags: /Odtp /RTCsu /ZI
;	COMDAT ??1?$_Ranit@UBlendedAnimation@Moo@@HPBU12@ABU12@@std@@QAE@XZ
_TEXT	SEGMENT
_this$ = -8						; size = 4
??1?$_Ranit@UBlendedAnimation@Moo@@HPBU12@ABU12@@std@@QAE@XZ PROC ; std::_Ranit<Moo::BlendedAnimation,int,Moo::BlendedAnimation const *,Moo::BlendedAnimation const &>::~_Ranit<Moo::BlendedAnimation,int,Moo::BlendedAnimation const *,Moo::BlendedAnimation const &>, COMDAT
; _this$ = ecx
  00000	55		 push	 ebp
  00001	8b ec		 mov	 ebp, esp
  00003	81 ec cc 00 00
	00		 sub	 esp, 204		; 000000ccH
  00009	53		 push	 ebx
  0000a	56		 push	 esi
  0000b	57		 push	 edi
  0000c	51		 push	 ecx
  0000d	8d bd 34 ff ff
	ff		 lea	 edi, DWORD PTR [ebp-204]
  00013	b9 33 00 00 00	 mov	 ecx, 51			; 00000033H
  00018	b8 cc cc cc cc	 mov	 eax, -858993460		; ccccccccH
  0001d	f3 ab		 rep stosd
  0001f	59		 pop	 ecx
  00020	89 4d f8	 mov	 DWORD PTR _this$[ebp], ecx
  00023	8b 4d f8	 mov	 ecx, DWORD PTR _this$[ebp]
  00026	e8 00 00 00 00	 call	 ??1_Iterator_base@std@@QAE@XZ ; std::_Iterator_base::~_Iterator_base
  0002b	5f		 pop	 edi
  0002c	5e		 pop	 esi
  0002d	5b		 pop	 ebx
  0002e	81 c4 cc 00 00
	00		 add	 esp, 204		; 000000ccH
  00034	3b ec		 cmp	 ebp, esp
  00036	e8 00 00 00 00	 call	 __RTC_CheckEsp
  0003b	8b e5		 mov	 esp, ebp
  0003d	5d		 pop	 ebp
  0003e	c3		 ret	 0
??1?$_Ranit@UBlendedAnimation@Moo@@HPBU12@ABU12@@std@@QAE@XZ ENDP ; std::_Ranit<Moo::BlendedAnimation,int,Moo::BlendedAnimation const *,Moo::BlendedAnimation const &>::~_Ranit<Moo::BlendedAnimation,int,Moo::BlendedAnimation const *,Moo::BlendedAnimation const &>
_TEXT	ENDS
PUBLIC	??1?$vector@V?$SmartPointer@VAnimationChannel@Moo@@@@V?$allocator@V?$SmartPointer@VAnimationChannel@Moo@@@@@std@@@std@@QAE@XZ ; std::vector<SmartPointer<Moo::AnimationChannel>,std::allocator<SmartPointer<Moo::AnimationChannel> > >::~vector<SmartPointer<Moo::AnimationChannel>,std::allocator<SmartPointer<Moo::AnimationChannel> > >
PUBLIC	??1?$SmartPointer@VAnimation@Moo@@@@QAE@XZ	; SmartPointer<Moo::Animation>::~SmartPointer<Moo::Animation>
PUBLIC	??1?$SmartPointer@VStreamedAnimation@Moo@@@@QAE@XZ ; SmartPointer<Moo::StreamedAnimation>::~SmartPointer<Moo::StreamedAnimation>
PUBLIC	??1?$vector@VChannelBinder@Moo@@V?$allocator@VChannelBinder@Moo@@@std@@@std@@QAE@XZ ; std::vector<Moo::ChannelBinder,std::allocator<Moo::ChannelBinder> >::~vector<Moo::ChannelBinder,std::allocator<Moo::ChannelBinder> >
PUBLIC	??1ReferenceCount@@UAE@XZ			; ReferenceCount::~ReferenceCount
PUBLIC	??1?$SmartPointer@VNode@Moo@@@@QAE@XZ		; SmartPointer<Moo::Node>::~SmartPointer<Moo::Node>
PUBLIC	??1ScopedStackTrack@@QAE@XZ			; ScopedStackTrack::~ScopedStackTrack
PUBLIC	??1?$SmartPointer@VAnimationChannel@Moo@@@@QAE@XZ ; SmartPointer<Moo::AnimationChannel>::~SmartPointer<Moo::AnimationChannel>
PUBLIC	??1ChannelBinder@Moo@@QAE@XZ			; Moo::ChannelBinder::~ChannelBinder
PUBLIC	?push_back@?$vector@VChannelBinder@Moo@@V?$allocator@VChannelBinder@Moo@@@std@@@std@@QAEXABVChannelBinder@Moo@@@Z ; std::vector<Moo::ChannelBinder,std::allocator<Moo::ChannelBinder> >::push_back
PUBLIC	??0ChannelBinder@Moo@@QAE@V?$SmartPointer@VAnimationChannel@Moo@@@@V?$SmartPointer@VNode@Moo@@@@@Z ; Moo::ChannelBinder::ChannelBinder
PUBLIC	??0?$SmartPointer@VAnimationChannel@Moo@@@@QAE@ABV0@@Z ; SmartPointer<Moo::AnimationChannel>::SmartPointer<Moo::AnimationChannel>
PUBLIC	??C?$SmartPointer@VNode@Moo@@@@QBEPAVNode@Moo@@XZ ; SmartPointer<Moo::Node>::operator->
PUBLIC	??C?$SmartPointer@VAnimationChannel@Moo@@@@QBEPAVAnimationChannel@Moo@@XZ ; SmartPointer<Moo::AnimationChannel>::operator->
PUBLIC	?channel@ChannelBinder@Moo@@QBE?AV?$SmartPointer@VAnimationChannel@Moo@@@@XZ ; Moo::ChannelBinder::channel
PUBLIC	?channelBinder@Animation@Moo@@QAEAAVChannelBinder@2@I@Z ; Moo::Animation::channelBinder
PUBLIC	?nChannelBinders@Animation@Moo@@QBEIXZ		; Moo::Animation::nChannelBinders
PUBLIC	??0ScopedStackTrack@@QAE@PBD0I@Z		; ScopedStackTrack::ScopedStackTrack
PUBLIC	??_C@_0BK@FKGHIPLC@Moo?3?3Animation?3?3Animation?$AA@ ; `string'
PUBLIC	??_C@_0CD@PMFAICH@e?3?2bw191?2src?2lib?2moo?2animation?4c@ ; `string'
PUBLIC	?__LINE__Var@?1???0Animation@Moo@@QAE@PAV12@V?$SmartPointer@VNode@Moo@@@@@Z@4JA ; `Moo::Animation::Animation'::`2'::__LINE__Var
PUBLIC	??0?$vector@V?$SmartPointer@VAnimationChannel@Moo@@@@V?$allocator@V?$SmartPointer@VAnimationChannel@Moo@@@@@std@@@std@@QAE@ABV01@@Z ; std::vector<SmartPointer<Moo::AnimationChannel>,std::allocator<SmartPointer<Moo::AnimationChannel> > >::vector<SmartPointer<Moo::AnimationChannel>,std::allocator<SmartPointer<Moo::AnimationChannel> > >
PUBLIC	??0?$SmartPointer@VAnimation@Moo@@@@QAE@PAVAnimation@Moo@@_N@Z ; SmartPointer<Moo::Animation>::SmartPointer<Moo::Animation>
PUBLIC	??0?$SmartPointer@VStreamedAnimation@Moo@@@@QAE@ABV0@@Z ; SmartPointer<Moo::StreamedAnimation>::SmartPointer<Moo::StreamedAnimation>
PUBLIC	??0?$vector@VChannelBinder@Moo@@V?$allocator@VChannelBinder@Moo@@@std@@@std@@QAE@XZ ; std::vector<Moo::ChannelBinder,std::allocator<Moo::ChannelBinder> >::vector<Moo::ChannelBinder,std::allocator<Moo::ChannelBinder> >
PUBLIC	??_7Animation@Moo@@6B@				; Moo::Animation::`vftable'
PUBLIC	??0ReferenceCount@@QAE@XZ			; ReferenceCount::ReferenceCount
PUBLIC	??0Animation@Moo@@QAE@PAV01@V?$SmartPointer@VNode@Moo@@@@@Z ; Moo::Animation::Animation
PUBLIC	??_R4Animation@Moo@@6B@				; Moo::Animation::`RTTI Complete Object Locator'
PUBLIC	??_R0?AVAnimation@Moo@@@8			; Moo::Animation `RTTI Type Descriptor'
PUBLIC	??_R3Animation@Moo@@8				; Moo::Animation::`RTTI Class Hierarchy Descriptor'
PUBLIC	??_R2Animation@Moo@@8				; Moo::Animation::`RTTI Base Class Array'
PUBLIC	??_R1A@?0A@EA@Animation@Moo@@8			; Moo::Animation::`RTTI Base Class Descriptor at (0,-1,0,64)'
PUBLIC	??_R1A@?0A@EA@ReferenceCount@@8			; ReferenceCount::`RTTI Base Class Descriptor at (0,-1,0,64)'
PUBLIC	??_R0?AVReferenceCount@@@8			; ReferenceCount `RTTI Type Descriptor'
PUBLIC	??_R3ReferenceCount@@8				; ReferenceCount::`RTTI Class Hierarchy Descriptor'
PUBLIC	??_R2ReferenceCount@@8				; ReferenceCount::`RTTI Base Class Array'
EXTRN	__imp_??1?$basic_string@DU?$char_traits@D@std@@V?$allocator@D@2@@std@@QAE@XZ:PROC
EXTRN	?find@Node@Moo@@QAE?AV?$SmartPointer@VNode@Moo@@@@ABV?$basic_string@DU?$char_traits@D@std@@V?$allocator@D@2@@std@@@Z:PROC ; Moo::Node::find
EXTRN	?identifier@AnimationChannel@Moo@@QBEABV?$basic_string@DU?$char_traits@D@std@@V?$allocator@D@2@@std@@XZ:PROC ; Moo::AnimationChannel::identifier
EXTRN	@_RTC_CheckStackVars@8:PROC
EXTRN	??_7type_info@@6B@:QWORD			; type_info::`vftable'
EXTRN	??_EAnimation@Moo@@EAEPAXI@Z:PROC		; Moo::Animation::`vector deleting destructor'
;	COMDAT ??_R2ReferenceCount@@8
; File e:\bw191\src\lib\moo\animation.cpp
rdata$r	SEGMENT
??_R2ReferenceCount@@8 DD FLAT:??_R1A@?0A@EA@ReferenceCount@@8 ; ReferenceCount::`RTTI Base Class Array'
rdata$r	ENDS
;	COMDAT ??_R3ReferenceCount@@8
rdata$r	SEGMENT
??_R3ReferenceCount@@8 DD 00H				; ReferenceCount::`RTTI Class Hierarchy Descriptor'
	DD	00H
	DD	01H
	DD	FLAT:??_R2ReferenceCount@@8
rdata$r	ENDS
;	COMDAT ??_R0?AVReferenceCount@@@8
_DATA	SEGMENT
??_R0?AVReferenceCount@@@8 DD FLAT:??_7type_info@@6B@	; ReferenceCount `RTTI Type Descriptor'
	DD	00H
	DB	'.?AVReferenceCount@@', 00H
_DATA	ENDS
;	COMDAT ??_R1A@?0A@EA@ReferenceCount@@8
rdata$r	SEGMENT
??_R1A@?0A@EA@ReferenceCount@@8 DD FLAT:??_R0?AVReferenceCount@@@8 ; ReferenceCount::`RTTI Base Class Descriptor at (0,-1,0,64)'
	DD	00H
	DD	00H
	DD	0ffffffffH
	DD	00H
	DD	040H
	DD	FLAT:??_R3ReferenceCount@@8
rdata$r	ENDS
;	COMDAT ??_R1A@?0A@EA@Animation@Moo@@8
rdata$r	SEGMENT
??_R1A@?0A@EA@Animation@Moo@@8 DD FLAT:??_R0?AVAnimation@Moo@@@8 ; Moo::Animation::`RTTI Base Class Descriptor at (0,-1,0,64)'
	DD	01H
	DD	00H
	DD	0ffffffffH
	DD	00H
	DD	040H
	DD	FLAT:??_R3Animation@Moo@@8
rdata$r	ENDS
;	COMDAT ??_R2Animation@Moo@@8
rdata$r	SEGMENT
??_R2Animation@Moo@@8 DD FLAT:??_R1A@?0A@EA@Animation@Moo@@8 ; Moo::Animation::`RTTI Base Class Array'
	DD	FLAT:??_R1A@?0A@EA@ReferenceCount@@8
rdata$r	ENDS
;	COMDAT ??_R3Animation@Moo@@8
rdata$r	SEGMENT
??_R3Animation@Moo@@8 DD 00H				; Moo::Animation::`RTTI Class Hierarchy Descriptor'
	DD	00H
	DD	02H
	DD	FLAT:??_R2Animation@Moo@@8
rdata$r	ENDS
;	COMDAT ??_R0?AVAnimation@Moo@@@8
_DATA	SEGMENT
??_R0?AVAnimation@Moo@@@8 DD FLAT:??_7type_info@@6B@	; Moo::Animation `RTTI Type Descriptor'
	DD	00H
	DB	'.?AVAnimation@Moo@@', 00H
_DATA	ENDS
;	COMDAT ??_R4Animation@Moo@@6B@
rdata$r	SEGMENT
??_R4Animation@Moo@@6B@ DD 00H				; Moo::Animation::`RTTI Complete Object Locator'
	DD	00H
	DD	00H
	DD	FLAT:??_R0?AVAnimation@Moo@@@8
	DD	FLAT:??_R3Animation@Moo@@8
rdata$r	ENDS
;	COMDAT ??_C@_0BK@FKGHIPLC@Moo?3?3Animation?3?3Animation?$AA@
CONST	SEGMENT
??_C@_0BK@FKGHIPLC@Moo?3?3Animation?3?3Animation?$AA@ DB 'Moo::Animation:'
	DB	':Animation', 00H				; `string'
CONST	ENDS
;	COMDAT ??_C@_0CD@PMFAICH@e?3?2bw191?2src?2lib?2moo?2animation?4c@
CONST	SEGMENT
??_C@_0CD@PMFAICH@e?3?2bw191?2src?2lib?2moo?2animation?4c@ DB 'e:\bw191\s'
	DB	'rc\lib\moo\animation.cpp', 00H		; `string'
CONST	ENDS
;	COMDAT ?__LINE__Var@?1???0Animation@Moo@@QAE@PAV12@V?$SmartPointer@VNode@Moo@@@@@Z@4JA
_DATA	SEGMENT
?__LINE__Var@?1???0Animation@Moo@@QAE@PAV12@V?$SmartPointer@VNode@Moo@@@@@Z@4JA DD 02cH ; `Moo::Animation::Animation'::`2'::__LINE__Var
_DATA	ENDS
;	COMDAT ??_7Animation@Moo@@6B@
CONST	SEGMENT
??_7Animation@Moo@@6B@ DD FLAT:??_R4Animation@Moo@@6B@	; Moo::Animation::`vftable'
	DD	FLAT:??_EAnimation@Moo@@EAEPAXI@Z
CONST	ENDS
;	COMDAT xdata$x
xdata$x	SEGMENT
__ehfuncinfo$??0Animation@Moo@@QAE@PAV01@V?$SmartPointer@VNode@Moo@@@@@Z DD 019930522H
	DD	0cH
	DD	FLAT:__unwindtable$??0Animation@Moo@@QAE@PAV01@V?$SmartPointer@VNode@Moo@@@@@Z
	DD	2 DUP(00H)
	DD	2 DUP(00H)
	DD	00H
	DD	01H
__unwindtable$??0Animation@Moo@@QAE@PAV01@V?$SmartPointer@VNode@Moo@@@@@Z DD 0ffffffffH
	DD	FLAT:__unwindfunclet$??0Animation@Moo@@QAE@PAV01@V?$SmartPointer@VNode@Moo@@@@@Z$0
	DD	00H
	DD	FLAT:__unwindfunclet$??0Animation@Moo@@QAE@PAV01@V?$SmartPointer@VNode@Moo@@@@@Z$1
	DD	01H
	DD	FLAT:__unwindfunclet$??0Animation@Moo@@QAE@PAV01@V?$SmartPointer@VNode@Moo@@@@@Z$2
	DD	02H
	DD	FLAT:__unwindfunclet$??0Animation@Moo@@QAE@PAV01@V?$SmartPointer@VNode@Moo@@@@@Z$3
	DD	03H
	DD	FLAT:__unwindfunclet$??0Animation@Moo@@QAE@PAV01@V?$SmartPointer@VNode@Moo@@@@@Z$4
	DD	04H
	DD	FLAT:__unwindfunclet$??0Animation@Moo@@QAE@PAV01@V?$SmartPointer@VNode@Moo@@@@@Z$5
	DD	05H
	DD	FLAT:__unwindfunclet$??0Animation@Moo@@QAE@PAV01@V?$SmartPointer@VNode@Moo@@@@@Z$6
	DD	06H
	DD	FLAT:__unwindfunclet$??0Animation@Moo@@QAE@PAV01@V?$SmartPointer@VNode@Moo@@@@@Z$7
	DD	07H
	DD	FLAT:__unwindfunclet$??0Animation@Moo@@QAE@PAV01@V?$SmartPointer@VNode@Moo@@@@@Z$8
	DD	08H
	DD	FLAT:__unwindfunclet$??0Animation@Moo@@QAE@PAV01@V?$SmartPointer@VNode@Moo@@@@@Z$9
	DD	09H
	DD	FLAT:__unwindfunclet$??0Animation@Moo@@QAE@PAV01@V?$SmartPointer@VNode@Moo@@@@@Z$10
	DD	09H
	DD	FLAT:__unwindfunclet$??0Animation@Moo@@QAE@PAV01@V?$SmartPointer@VNode@Moo@@@@@Z$12
; Function compile flags: /Odtp /RTCsu /ZI
xdata$x	ENDS
;	COMDAT ??0Animation@Moo@@QAE@PAV01@V?$SmartPointer@VNode@Moo@@@@@Z
_TEXT	SEGMENT
tv236 = -312						; size = 4
tv231 = -308						; size = 4
tv234 = -304						; size = 4
tv230 = -300						; size = 4
tv169 = -296						; size = 4
$T144036 = -288						; size = 8
$T144037 = -272						; size = 4
$T144038 = -260						; size = 4
_pAC$136411 = -56					; size = 4
_i$136407 = -44						; size = 4
__BW_GUARD$ = -29					; size = 1
_this$ = -20						; size = 4
__$EHRec$ = -12						; size = 12
_anim$ = 8						; size = 4
_root$ = 12						; size = 4
??0Animation@Moo@@QAE@PAV01@V?$SmartPointer@VNode@Moo@@@@@Z PROC ; Moo::Animation::Animation, COMDAT
; _this$ = ecx
; Line 52
  00000	55		 push	 ebp
  00001	8b ec		 mov	 ebp, esp
  00003	6a ff		 push	 -1
  00005	68 00 00 00 00	 push	 __ehhandler$??0Animation@Moo@@QAE@PAV01@V?$SmartPointer@VNode@Moo@@@@@Z
  0000a	64 a1 00 00 00
	00		 mov	 eax, DWORD PTR fs:0
  00010	50		 push	 eax
  00011	81 ec 2c 01 00
	00		 sub	 esp, 300		; 0000012cH
  00017	53		 push	 ebx
  00018	56		 push	 esi
  00019	57		 push	 edi
  0001a	51		 push	 ecx
  0001b	8d bd c8 fe ff
	ff		 lea	 edi, DWORD PTR [ebp-312]
  00021	b9 4b 00 00 00	 mov	 ecx, 75			; 0000004bH
  00026	b8 cc cc cc cc	 mov	 eax, -858993460		; ccccccccH
  0002b	f3 ab		 rep stosd
  0002d	59		 pop	 ecx
  0002e	a1 00 00 00 00	 mov	 eax, DWORD PTR ___security_cookie
  00033	33 c5		 xor	 eax, ebp
  00035	50		 push	 eax
  00036	8d 45 f4	 lea	 eax, DWORD PTR __$EHRec$[ebp]
  00039	64 a3 00 00 00
	00		 mov	 DWORD PTR fs:0, eax
  0003f	89 4d ec	 mov	 DWORD PTR _this$[ebp], ecx
  00042	c7 45 fc 00 00
	00 00		 mov	 DWORD PTR __$EHRec$[ebp+8], 0
  00049	8b 4d ec	 mov	 ecx, DWORD PTR _this$[ebp]
  0004c	e8 00 00 00 00	 call	 ??0ReferenceCount@@QAE@XZ ; ReferenceCount::ReferenceCount
  00051	c6 45 fc 01	 mov	 BYTE PTR __$EHRec$[ebp+8], 1
  00055	8b 45 ec	 mov	 eax, DWORD PTR _this$[ebp]
  00058	c7 00 00 00 00
	00		 mov	 DWORD PTR [eax], OFFSET ??_7Animation@Moo@@6B@
  0005e	8b 4d 08	 mov	 ecx, DWORD PTR _anim$[ebp]
  00061	e8 00 00 00 00	 call	 ?totalTime@Animation@Moo@@QBEMXZ ; Moo::Animation::totalTime
  00066	8b 45 ec	 mov	 eax, DWORD PTR _this$[ebp]
  00069	d9 58 08	 fstp	 DWORD PTR [eax+8]
  0006c	8b 4d ec	 mov	 ecx, DWORD PTR _this$[ebp]
  0006f	83 c1 0c	 add	 ecx, 12			; 0000000cH
  00072	e8 00 00 00 00	 call	 ??0?$vector@VChannelBinder@Moo@@V?$allocator@VChannelBinder@Moo@@@std@@@std@@QAE@XZ ; std::vector<Moo::ChannelBinder,std::allocator<Moo::ChannelBinder> >::vector<Moo::ChannelBinder,std::allocator<Moo::ChannelBinder> >
  00077	c6 45 fc 02	 mov	 BYTE PTR __$EHRec$[ebp+8], 2
  0007b	8b 45 ec	 mov	 eax, DWORD PTR _this$[ebp]
  0007e	83 c0 20	 add	 eax, 32			; 00000020H
  00081	50		 push	 eax
  00082	8b 4d 08	 mov	 ecx, DWORD PTR _anim$[ebp]
  00085	e8 00 00 00 00	 call	 ?identifier@Animation@Moo@@QBE?BV?$basic_string@DU?$char_traits@D@std@@V?$allocator@D@2@@std@@XZ ; Moo::Animation::identifier
  0008a	c6 45 fc 03	 mov	 BYTE PTR __$EHRec$[ebp+8], 3
  0008e	8b 45 ec	 mov	 eax, DWORD PTR _this$[ebp]
  00091	83 c0 40	 add	 eax, 64			; 00000040H
  00094	50		 push	 eax
  00095	8b 4d 08	 mov	 ecx, DWORD PTR _anim$[ebp]
  00098	e8 00 00 00 00	 call	 ?internalIdentifier@Animation@Moo@@QBE?BV?$basic_string@DU?$char_traits@D@std@@V?$allocator@D@2@@std@@XZ ; Moo::Animation::internalIdentifier
  0009d	c6 45 fc 04	 mov	 BYTE PTR __$EHRec$[ebp+8], 4
  000a1	8b 45 ec	 mov	 eax, DWORD PTR _this$[ebp]
  000a4	c7 40 60 00 00
	00 00		 mov	 DWORD PTR [eax+96], 0
  000ab	8b 45 08	 mov	 eax, DWORD PTR _anim$[ebp]
  000ae	83 c0 64	 add	 eax, 100		; 00000064H
  000b1	50		 push	 eax
  000b2	8b 4d ec	 mov	 ecx, DWORD PTR _this$[ebp]
  000b5	83 c1 64	 add	 ecx, 100		; 00000064H
  000b8	e8 00 00 00 00	 call	 ??0?$SmartPointer@VStreamedAnimation@Moo@@@@QAE@ABV0@@Z ; SmartPointer<Moo::StreamedAnimation>::SmartPointer<Moo::StreamedAnimation>
  000bd	c6 45 fc 05	 mov	 BYTE PTR __$EHRec$[ebp+8], 5
  000c1	6a 00		 push	 0
  000c3	8b 45 08	 mov	 eax, DWORD PTR _anim$[ebp]
  000c6	50		 push	 eax
  000c7	8b 4d ec	 mov	 ecx, DWORD PTR _this$[ebp]
  000ca	83 c1 68	 add	 ecx, 104		; 00000068H
  000cd	e8 00 00 00 00	 call	 ??0?$SmartPointer@VAnimation@Moo@@@@QAE@PAVAnimation@Moo@@_N@Z ; SmartPointer<Moo::Animation>::SmartPointer<Moo::Animation>
  000d2	c6 45 fc 06	 mov	 BYTE PTR __$EHRec$[ebp+8], 6
  000d6	8b 45 08	 mov	 eax, DWORD PTR _anim$[ebp]
  000d9	83 c0 6c	 add	 eax, 108		; 0000006cH
  000dc	50		 push	 eax
  000dd	8b 4d ec	 mov	 ecx, DWORD PTR _this$[ebp]
  000e0	83 c1 6c	 add	 ecx, 108		; 0000006cH
  000e3	e8 00 00 00 00	 call	 ??0?$vector@V?$SmartPointer@VAnimationChannel@Moo@@@@V?$allocator@V?$SmartPointer@VAnimationChannel@Moo@@@@@std@@@std@@QAE@ABV01@@Z ; std::vector<SmartPointer<Moo::AnimationChannel>,std::allocator<SmartPointer<Moo::AnimationChannel> > >::vector<SmartPointer<Moo::AnimationChannel>,std::allocator<SmartPointer<Moo::AnimationChannel> > >
  000e8	c6 45 fc 07	 mov	 BYTE PTR __$EHRec$[ebp+8], 7
; Line 53
  000ec	a1 00 00 00 00	 mov	 eax, DWORD PTR ?__LINE__Var@?1???0Animation@Moo@@QAE@PAV12@V?$SmartPointer@VNode@Moo@@@@@Z@4JA
  000f1	83 c0 09	 add	 eax, 9
  000f4	50		 push	 eax
  000f5	68 00 00 00 00	 push	 OFFSET ??_C@_0CD@PMFAICH@e?3?2bw191?2src?2lib?2moo?2animation?4c@
  000fa	68 00 00 00 00	 push	 OFFSET ??_C@_0BK@FKGHIPLC@Moo?3?3Animation?3?3Animation?$AA@
  000ff	8d 4d e3	 lea	 ecx, DWORD PTR __BW_GUARD$[ebp]
  00102	e8 00 00 00 00	 call	 ??0ScopedStackTrack@@QAE@PBD0I@Z ; ScopedStackTrack::ScopedStackTrack
  00107	c6 45 fc 08	 mov	 BYTE PTR __$EHRec$[ebp+8], 8
; Line 54
  0010b	c7 45 d4 00 00
	00 00		 mov	 DWORD PTR _i$136407[ebp], 0
  00112	eb 09		 jmp	 SHORT $LN3@Animation
$LN2@Animation:
  00114	8b 45 d4	 mov	 eax, DWORD PTR _i$136407[ebp]
  00117	83 c0 01	 add	 eax, 1
  0011a	89 45 d4	 mov	 DWORD PTR _i$136407[ebp], eax
$LN3@Animation:
  0011d	8b 4d 08	 mov	 ecx, DWORD PTR _anim$[ebp]
  00120	e8 00 00 00 00	 call	 ?nChannelBinders@Animation@Moo@@QBEIXZ ; Moo::Animation::nChannelBinders
  00125	39 45 d4	 cmp	 DWORD PTR _i$136407[ebp], eax
  00128	0f 83 c9 00 00
	00		 jae	 $LN1@Animation
; Line 56
  0012e	8d 45 c8	 lea	 eax, DWORD PTR _pAC$136411[ebp]
  00131	50		 push	 eax
  00132	8b 4d d4	 mov	 ecx, DWORD PTR _i$136407[ebp]
  00135	51		 push	 ecx
  00136	8b 4d 08	 mov	 ecx, DWORD PTR _anim$[ebp]
  00139	e8 00 00 00 00	 call	 ?channelBinder@Animation@Moo@@QAEAAVChannelBinder@2@I@Z ; Moo::Animation::channelBinder
  0013e	8b c8		 mov	 ecx, eax
  00140	e8 00 00 00 00	 call	 ?channel@ChannelBinder@Moo@@QBE?AV?$SmartPointer@VAnimationChannel@Moo@@@@XZ ; Moo::ChannelBinder::channel
  00145	c6 45 fc 09	 mov	 BYTE PTR __$EHRec$[ebp+8], 9
; Line 57
  00149	8d 4d c8	 lea	 ecx, DWORD PTR _pAC$136411[ebp]
  0014c	e8 00 00 00 00	 call	 ??C?$SmartPointer@VAnimationChannel@Moo@@@@QBEPAVAnimationChannel@Moo@@XZ ; SmartPointer<Moo::AnimationChannel>::operator->
  00151	8b c8		 mov	 ecx, eax
  00153	e8 00 00 00 00	 call	 ?identifier@AnimationChannel@Moo@@QBEABV?$basic_string@DU?$char_traits@D@std@@V?$allocator@D@2@@std@@XZ ; Moo::AnimationChannel::identifier
  00158	51		 push	 ecx
  00159	8b cc		 mov	 ecx, esp
  0015b	89 a5 f0 fe ff
	ff		 mov	 DWORD PTR $T144037[ebp], esp
  00161	50		 push	 eax
  00162	51		 push	 ecx
  00163	8d 4d 0c	 lea	 ecx, DWORD PTR _root$[ebp]
  00166	e8 00 00 00 00	 call	 ??C?$SmartPointer@VNode@Moo@@@@QBEPAVNode@Moo@@XZ ; SmartPointer<Moo::Node>::operator->
  0016b	8b c8		 mov	 ecx, eax
  0016d	e8 00 00 00 00	 call	 ?find@Node@Moo@@QAE?AV?$SmartPointer@VNode@Moo@@@@ABV?$basic_string@DU?$char_traits@D@std@@V?$allocator@D@2@@std@@@Z ; Moo::Node::find
  00172	89 85 d8 fe ff
	ff		 mov	 DWORD PTR tv169[ebp], eax
  00178	8b 95 d8 fe ff
	ff		 mov	 edx, DWORD PTR tv169[ebp]
  0017e	89 95 d4 fe ff
	ff		 mov	 DWORD PTR tv230[ebp], edx
  00184	c6 45 fc 0a	 mov	 BYTE PTR __$EHRec$[ebp+8], 10 ; 0000000aH
  00188	51		 push	 ecx
  00189	8b cc		 mov	 ecx, esp
  0018b	89 a5 fc fe ff
	ff		 mov	 DWORD PTR $T144038[ebp], esp
  00191	8d 45 c8	 lea	 eax, DWORD PTR _pAC$136411[ebp]
  00194	50		 push	 eax
  00195	e8 00 00 00 00	 call	 ??0?$SmartPointer@VAnimationChannel@Moo@@@@QAE@ABV0@@Z ; SmartPointer<Moo::AnimationChannel>::SmartPointer<Moo::AnimationChannel>
  0019a	89 85 d0 fe ff
	ff		 mov	 DWORD PTR tv234[ebp], eax
  001a0	c6 45 fc 09	 mov	 BYTE PTR __$EHRec$[ebp+8], 9
  001a4	8d 8d e0 fe ff
	ff		 lea	 ecx, DWORD PTR $T144036[ebp]
  001aa	e8 00 00 00 00	 call	 ??0ChannelBinder@Moo@@QAE@V?$SmartPointer@VAnimationChannel@Moo@@@@V?$SmartPointer@VNode@Moo@@@@@Z ; Moo::ChannelBinder::ChannelBinder
  001af	89 85 cc fe ff
	ff		 mov	 DWORD PTR tv231[ebp], eax
  001b5	8b 8d cc fe ff
	ff		 mov	 ecx, DWORD PTR tv231[ebp]
  001bb	89 8d c8 fe ff
	ff		 mov	 DWORD PTR tv236[ebp], ecx
  001c1	c6 45 fc 0b	 mov	 BYTE PTR __$EHRec$[ebp+8], 11 ; 0000000bH
  001c5	8b 95 c8 fe ff
	ff		 mov	 edx, DWORD PTR tv236[ebp]
  001cb	52		 push	 edx
  001cc	8b 4d ec	 mov	 ecx, DWORD PTR _this$[ebp]
  001cf	83 c1 0c	 add	 ecx, 12			; 0000000cH
  001d2	e8 00 00 00 00	 call	 ?push_back@?$vector@VChannelBinder@Moo@@V?$allocator@VChannelBinder@Moo@@@std@@@std@@QAEXABVChannelBinder@Moo@@@Z ; std::vector<Moo::ChannelBinder,std::allocator<Moo::ChannelBinder> >::push_back
  001d7	c6 45 fc 09	 mov	 BYTE PTR __$EHRec$[ebp+8], 9
  001db	8d 8d e0 fe ff
	ff		 lea	 ecx, DWORD PTR $T144036[ebp]
  001e1	e8 00 00 00 00	 call	 ??1ChannelBinder@Moo@@QAE@XZ ; Moo::ChannelBinder::~ChannelBinder
; Line 58
  001e6	c6 45 fc 08	 mov	 BYTE PTR __$EHRec$[ebp+8], 8
  001ea	8d 4d c8	 lea	 ecx, DWORD PTR _pAC$136411[ebp]
  001ed	e8 00 00 00 00	 call	 ??1?$SmartPointer@VAnimationChannel@Moo@@@@QAE@XZ
  001f2	e9 1d ff ff ff	 jmp	 $LN2@Animation
$LN1@Animation:
; Line 59
  001f7	c6 45 fc 07	 mov	 BYTE PTR __$EHRec$[ebp+8], 7
  001fb	8d 4d e3	 lea	 ecx, DWORD PTR __BW_GUARD$[ebp]
  001fe	e8 00 00 00 00	 call	 ??1ScopedStackTrack@@QAE@XZ ; ScopedStackTrack::~ScopedStackTrack
  00203	c7 45 fc ff ff
	ff ff		 mov	 DWORD PTR __$EHRec$[ebp+8], -1
  0020a	8d 4d 0c	 lea	 ecx, DWORD PTR _root$[ebp]
  0020d	e8 00 00 00 00	 call	 ??1?$SmartPointer@VNode@Moo@@@@QAE@XZ
  00212	8b 45 ec	 mov	 eax, DWORD PTR _this$[ebp]
  00215	52		 push	 edx
  00216	8b cd		 mov	 ecx, ebp
  00218	50		 push	 eax
  00219	8d 15 00 00 00
	00		 lea	 edx, DWORD PTR $LN23@Animation
  0021f	e8 00 00 00 00	 call	 @_RTC_CheckStackVars@8
  00224	58		 pop	 eax
  00225	5a		 pop	 edx
  00226	8b 4d f4	 mov	 ecx, DWORD PTR __$EHRec$[ebp]
  00229	64 89 0d 00 00
	00 00		 mov	 DWORD PTR fs:0, ecx
  00230	59		 pop	 ecx
  00231	5f		 pop	 edi
  00232	5e		 pop	 esi
  00233	5b		 pop	 ebx
  00234	81 c4 38 01 00
	00		 add	 esp, 312		; 00000138H
  0023a	3b ec		 cmp	 ebp, esp
  0023c	e8 00 00 00 00	 call	 __RTC_CheckEsp
  00241	8b e5		 mov	 esp, ebp
  00243	5d		 pop	 ebp
  00244	c2 08 00	 ret	 8
  00247	90		 npad	 1
$LN23@Animation:
  00248	02 00 00 00	 DD	 2
  0024c	00 00 00 00	 DD	 $LN22@Animation
$LN22@Animation:
  00250	e3 ff ff ff	 DD	 -29			; ffffffe3H
  00254	01 00 00 00	 DD	 1
  00258	00 00 00 00	 DD	 $LN19@Animation
  0025c	c8 ff ff ff	 DD	 -56			; ffffffc8H
  00260	04 00 00 00	 DD	 4
  00264	00 00 00 00	 DD	 $LN20@Animation
$LN20@Animation:
  00268	70		 DB	 112			; 00000070H
  00269	41		 DB	 65			; 00000041H
  0026a	43		 DB	 67			; 00000043H
  0026b	00		 DB	 0
$LN19@Animation:
  0026c	5f		 DB	 95			; 0000005fH
  0026d	42		 DB	 66			; 00000042H
  0026e	57		 DB	 87			; 00000057H
  0026f	5f		 DB	 95			; 0000005fH
  00270	47		 DB	 71			; 00000047H
  00271	55		 DB	 85			; 00000055H
  00272	41		 DB	 65			; 00000041H
  00273	52		 DB	 82			; 00000052H
  00274	44		 DB	 68			; 00000044H
  00275	00		 DB	 0
_TEXT	ENDS
;	COMDAT text$x
text$x	SEGMENT
__unwindfunclet$??0Animation@Moo@@QAE@PAV01@V?$SmartPointer@VNode@Moo@@@@@Z$0:
  00000	8d 4d 0c	 lea	 ecx, DWORD PTR _root$[ebp]
  00003	e9 00 00 00 00	 jmp	 ??1?$SmartPointer@VNode@Moo@@@@QAE@XZ
__unwindfunclet$??0Animation@Moo@@QAE@PAV01@V?$SmartPointer@VNode@Moo@@@@@Z$1:
  00008	8b 4d ec	 mov	 ecx, DWORD PTR _this$[ebp]
  0000b	e9 00 00 00 00	 jmp	 ??1ReferenceCount@@UAE@XZ ; ReferenceCount::~ReferenceCount
__unwindfunclet$??0Animation@Moo@@QAE@PAV01@V?$SmartPointer@VNode@Moo@@@@@Z$2:
  00010	8b 4d ec	 mov	 ecx, DWORD PTR _this$[ebp]
  00013	83 c1 0c	 add	 ecx, 12			; 0000000cH
  00016	e9 00 00 00 00	 jmp	 ??1?$vector@VChannelBinder@Moo@@V?$allocator@VChannelBinder@Moo@@@std@@@std@@QAE@XZ ; std::vector<Moo::ChannelBinder,std::allocator<Moo::ChannelBinder> >::~vector<Moo::ChannelBinder,std::allocator<Moo::ChannelBinder> >
__unwindfunclet$??0Animation@Moo@@QAE@PAV01@V?$SmartPointer@VNode@Moo@@@@@Z$3:
  0001b	8b 4d ec	 mov	 ecx, DWORD PTR _this$[ebp]
  0001e	83 c1 20	 add	 ecx, 32			; 00000020H
  00021	8b f4		 mov	 esi, esp
  00023	ff 15 00 00 00
	00		 call	 DWORD PTR __imp_??1?$basic_string@DU?$char_traits@D@std@@V?$allocator@D@2@@std@@QAE@XZ
  00029	3b f4		 cmp	 esi, esp
  0002b	e9 00 00 00 00	 jmp	 __RTC_CheckEsp
__unwindfunclet$??0Animation@Moo@@QAE@PAV01@V?$SmartPointer@VNode@Moo@@@@@Z$4:
  00030	8b 4d ec	 mov	 ecx, DWORD PTR _this$[ebp]
  00033	83 c1 40	 add	 ecx, 64			; 00000040H
  00036	8b f4		 mov	 esi, esp
  00038	ff 15 00 00 00
	00		 call	 DWORD PTR __imp_??1?$basic_string@DU?$char_traits@D@std@@V?$allocator@D@2@@std@@QAE@XZ
  0003e	3b f4		 cmp	 esi, esp
  00040	e9 00 00 00 00	 jmp	 __RTC_CheckEsp
__unwindfunclet$??0Animation@Moo@@QAE@PAV01@V?$SmartPointer@VNode@Moo@@@@@Z$5:
  00045	8b 4d ec	 mov	 ecx, DWORD PTR _this$[ebp]
  00048	83 c1 64	 add	 ecx, 100		; 00000064H
  0004b	e9 00 00 00 00	 jmp	 ??1?$SmartPointer@VStreamedAnimation@Moo@@@@QAE@XZ
__unwindfunclet$??0Animation@Moo@@QAE@PAV01@V?$SmartPointer@VNode@Moo@@@@@Z$6:
  00050	8b 4d ec	 mov	 ecx, DWORD PTR _this$[ebp]
  00053	83 c1 68	 add	 ecx, 104		; 00000068H
  00056	e9 00 00 00 00	 jmp	 ??1?$SmartPointer@VAnimation@Moo@@@@QAE@XZ
__unwindfunclet$??0Animation@Moo@@QAE@PAV01@V?$SmartPointer@VNode@Moo@@@@@Z$7:
  0005b	8b 4d ec	 mov	 ecx, DWORD PTR _this$[ebp]
  0005e	83 c1 6c	 add	 ecx, 108		; 0000006cH
  00061	e9 00 00 00 00	 jmp	 ??1?$vector@V?$SmartPointer@VAnimationChannel@Moo@@@@V?$allocator@V?$SmartPointer@VAnimationChannel@Moo@@@@@std@@@std@@QAE@XZ ; std::vector<SmartPointer<Moo::AnimationChannel>,std::allocator<SmartPointer<Moo::AnimationChannel> > >::~vector<SmartPointer<Moo::AnimationChannel>,std::allocator<SmartPointer<Moo::AnimationChannel> > >
__unwindfunclet$??0Animation@Moo@@QAE@PAV01@V?$SmartPointer@VNode@Moo@@@@@Z$8:
  00066	8d 4d e3	 lea	 ecx, DWORD PTR __BW_GUARD$[ebp]
  00069	e9 00 00 00 00	 jmp	 ??1ScopedStackTrack@@QAE@XZ ; ScopedStackTrack::~ScopedStackTrack
__unwindfunclet$??0Animation@Moo@@QAE@PAV01@V?$SmartPointer@VNode@Moo@@@@@Z$9:
  0006e	8d 4d c8	 lea	 ecx, DWORD PTR _pAC$136411[ebp]
  00071	e9 00 00 00 00	 jmp	 ??1?$SmartPointer@VAnimationChannel@Moo@@@@QAE@XZ
__unwindfunclet$??0Animation@Moo@@QAE@PAV01@V?$SmartPointer@VNode@Moo@@@@@Z$10:
  00076	8b 8d f0 fe ff
	ff		 mov	 ecx, DWORD PTR $T144037[ebp]
  0007c	e9 00 00 00 00	 jmp	 ??1?$SmartPointer@VNode@Moo@@@@QAE@XZ
__unwindfunclet$??0Animation@Moo@@QAE@PAV01@V?$SmartPointer@VNode@Moo@@@@@Z$12:
  00081	8d 8d e0 fe ff
	ff		 lea	 ecx, DWORD PTR $T144036[ebp]
  00087	e9 00 00 00 00	 jmp	 ??1ChannelBinder@Moo@@QAE@XZ ; Moo::ChannelBinder::~ChannelBinder
__ehhandler$??0Animation@Moo@@QAE@PAV01@V?$SmartPointer@VNode@Moo@@@@@Z:
  0008c	8b 54 24 08	 mov	 edx, DWORD PTR [esp+8]
  00090	8d 42 0c	 lea	 eax, DWORD PTR [edx+12]
  00093	8b 8a c4 fe ff
	ff		 mov	 ecx, DWORD PTR [edx-316]
  00099	33 c8		 xor	 ecx, eax
  0009b	e8 00 00 00 00	 call	 @__security_check_cookie@4
  000a0	b8 00 00 00 00	 mov	 eax, OFFSET __ehfuncinfo$??0Animation@Moo@@QAE@PAV01@V?$SmartPointer@VNode@Moo@@@@@Z
  000a5	e9 00 00 00 00	 jmp	 ___CxxFrameHandler3
text$x	ENDS
??0Animation@Moo@@QAE@PAV01@V?$SmartPointer@VNode@Moo@@@@@Z ENDP ; Moo::Animation::Animation
PUBLIC	??0?$SmartPointer@VNode@Moo@@@@QAE@ABV0@@Z	; SmartPointer<Moo::Node>::SmartPointer<Moo::Node>
;	COMDAT xdata$x
; File e:\bw191\src\lib\moo\animation_channel.hpp
xdata$x	SEGMENT
__unwindtable$??0ChannelBinder@Moo@@QAE@V?$SmartPointer@VAnimationChannel@Moo@@@@V?$SmartPointer@VNode@Moo@@@@@Z DD 0ffffffffH
	DD	FLAT:__unwindfunclet$??0ChannelBinder@Moo@@QAE@V?$SmartPointer@VAnimationChannel@Moo@@@@V?$SmartPointer@VNode@Moo@@@@@Z$0
	DD	00H
	DD	FLAT:__unwindfunclet$??0ChannelBinder@Moo@@QAE@V?$SmartPointer@VAnimationChannel@Moo@@@@V?$SmartPointer@VNode@Moo@@@@@Z$1
	DD	01H
	DD	FLAT:__unwindfunclet$??0ChannelBinder@Moo@@QAE@V?$SmartPointer@VAnimationChannel@Moo@@@@V?$SmartPointer@VNode@Moo@@@@@Z$2
__ehfuncinfo$??0ChannelBinder@Moo@@QAE@V?$SmartPointer@VAnimationChannel@Moo@@@@V?$SmartPointer@VNode@Moo@@@@@Z DD 019930522H
	DD	03H
	DD	FLAT:__unwindtable$??0ChannelBinder@Moo@@QAE@V?$SmartPointer@VAnimationChannel@Moo@@@@V?$SmartPointer@VNode@Moo@@@@@Z
	DD	2 DUP(00H)
	DD	2 DUP(00H)
	DD	00H
	DD	01H
; Function compile flags: /Odtp /RTCsu /ZI
xdata$x	ENDS
;	COMDAT ??0ChannelBinder@Moo@@QAE@V?$SmartPointer@VAnimationChannel@Moo@@@@V?$SmartPointer@VNode@Moo@@@@@Z
_TEXT	SEGMENT
_this$ = -20						; size = 4
__$EHRec$ = -12						; size = 12
_channel$ = 8						; size = 4
_node$ = 12						; size = 4
??0ChannelBinder@Moo@@QAE@V?$SmartPointer@VAnimationChannel@Moo@@@@V?$SmartPointer@VNode@Moo@@@@@Z PROC ; Moo::ChannelBinder::ChannelBinder, COMDAT
; _this$ = ecx
; Line 112
  00000	55		 push	 ebp
  00001	8b ec		 mov	 ebp, esp
  00003	6a ff		 push	 -1
  00005	68 00 00 00 00	 push	 __ehhandler$??0ChannelBinder@Moo@@QAE@V?$SmartPointer@VAnimationChannel@Moo@@@@V?$SmartPointer@VNode@Moo@@@@@Z
  0000a	64 a1 00 00 00
	00		 mov	 eax, DWORD PTR fs:0
  00010	50		 push	 eax
  00011	81 ec cc 00 00
	00		 sub	 esp, 204		; 000000ccH
  00017	53		 push	 ebx
  00018	56		 push	 esi
  00019	57		 push	 edi
  0001a	51		 push	 ecx
  0001b	8d bd 28 ff ff
	ff		 lea	 edi, DWORD PTR [ebp-216]
  00021	b9 33 00 00 00	 mov	 ecx, 51			; 00000033H
  00026	b8 cc cc cc cc	 mov	 eax, -858993460		; ccccccccH
  0002b	f3 ab		 rep stosd
  0002d	59		 pop	 ecx
  0002e	a1 00 00 00 00	 mov	 eax, DWORD PTR ___security_cookie
  00033	33 c5		 xor	 eax, ebp
  00035	50		 push	 eax
  00036	8d 45 f4	 lea	 eax, DWORD PTR __$EHRec$[ebp]
  00039	64 a3 00 00 00
	00		 mov	 DWORD PTR fs:0, eax
  0003f	89 4d ec	 mov	 DWORD PTR _this$[ebp], ecx
  00042	c7 45 fc 01 00
	00 00		 mov	 DWORD PTR __$EHRec$[ebp+8], 1
  00049	8d 45 08	 lea	 eax, DWORD PTR _channel$[ebp]
  0004c	50		 push	 eax
  0004d	8b 4d ec	 mov	 ecx, DWORD PTR _this$[ebp]
  00050	e8 00 00 00 00	 call	 ??0?$SmartPointer@VAnimationChannel@Moo@@@@QAE@ABV0@@Z ; SmartPointer<Moo::AnimationChannel>::SmartPointer<Moo::AnimationChannel>
  00055	c6 45 fc 02	 mov	 BYTE PTR __$EHRec$[ebp+8], 2
  00059	8d 45 0c	 lea	 eax, DWORD PTR _node$[ebp]
  0005c	50		 push	 eax
  0005d	8b 4d ec	 mov	 ecx, DWORD PTR _this$[ebp]
  00060	83 c1 04	 add	 ecx, 4
  00063	e8 00 00 00 00	 call	 ??0?$SmartPointer@VNode@Moo@@@@QAE@ABV0@@Z ; SmartPointer<Moo::Node>::SmartPointer<Moo::Node>
; Line 113
  00068	c6 45 fc 00	 mov	 BYTE PTR __$EHRec$[ebp+8], 0
  0006c	8d 4d 08	 lea	 ecx, DWORD PTR _channel$[ebp]
  0006f	e8 00 00 00 00	 call	 ??1?$SmartPointer@VAnimationChannel@Moo@@@@QAE@XZ
  00074	c7 45 fc ff ff
	ff ff		 mov	 DWORD PTR __$EHRec$[ebp+8], -1
  0007b	8d 4d 0c	 lea	 ecx, DWORD PTR _node$[ebp]
  0007e	e8 00 00 00 00	 call	 ??1?$SmartPointer@VNode@Moo@@@@QAE@XZ
  00083	8b 45 ec	 mov	 eax, DWORD PTR _this$[ebp]
  00086	8b 4d f4	 mov	 ecx, DWORD PTR __$EHRec$[ebp]
  00089	64 89 0d 00 00
	00 00		 mov	 DWORD PTR fs:0, ecx
  00090	59		 pop	 ecx
  00091	5f		 pop	 edi
  00092	5e		 pop	 esi
  00093	5b		 pop	 ebx
  00094	81 c4 d8 00 00
	00		 add	 esp, 216		; 000000d8H
  0009a	3b ec		 cmp	 ebp, esp
  0009c	e8 00 00 00 00	 call	 __RTC_CheckEsp
  000a1	8b e5		 mov	 esp, ebp
  000a3	5d		 pop	 ebp
  000a4	c2 08 00	 ret	 8
_TEXT	ENDS
;	COMDAT text$x
text$x	SEGMENT
__unwindfunclet$??0ChannelBinder@Moo@@QAE@V?$SmartPointer@VAnimationChannel@Moo@@@@V?$SmartPointer@VNode@Moo@@@@@Z$0:
  00000	8d 4d 0c	 lea	 ecx, DWORD PTR _node$[ebp]
  00003	e9 00 00 00 00	 jmp	 ??1?$SmartPointer@VNode@Moo@@@@QAE@XZ
__unwindfunclet$??0ChannelBinder@Moo@@QAE@V?$SmartPointer@VAnimationChannel@Moo@@@@V?$SmartPointer@VNode@Moo@@@@@Z$1:
  00008	8d 4d 08	 lea	 ecx, DWORD PTR _channel$[ebp]
  0000b	e9 00 00 00 00	 jmp	 ??1?$SmartPointer@VAnimationChannel@Moo@@@@QAE@XZ
__unwindfunclet$??0ChannelBinder@Moo@@QAE@V?$SmartPointer@VAnimationChannel@Moo@@@@V?$SmartPointer@VNode@Moo@@@@@Z$2:
  00010	8b 4d ec	 mov	 ecx, DWORD PTR _this$[ebp]
  00013	e9 00 00 00 00	 jmp	 ??1?$SmartPointer@VAnimationChannel@Moo@@@@QAE@XZ
__ehhandler$??0ChannelBinder@Moo@@QAE@V?$SmartPointer@VAnimationChannel@Moo@@@@V?$SmartPointer@VNode@Moo@@@@@Z:
  00018	8b 54 24 08	 mov	 edx, DWORD PTR [esp+8]
  0001c	8d 42 0c	 lea	 eax, DWORD PTR [edx+12]
  0001f	8b 8a 24 ff ff
	ff		 mov	 ecx, DWORD PTR [edx-220]
  00025	33 c8		 xor	 ecx, eax
  00027	e8 00 00 00 00	 call	 @__security_check_cookie@4
  0002c	b8 00 00 00 00	 mov	 eax, OFFSET __ehfuncinfo$??0ChannelBinder@Moo@@QAE@V?$SmartPointer@VAnimationChannel@Moo@@@@V?$SmartPointer@VNode@Moo@@@@@Z
  00031	e9 00 00 00 00	 jmp	 ___CxxFrameHandler3
text$x	ENDS
??0ChannelBinder@Moo@@QAE@V?$SmartPointer@VAnimationChannel@Moo@@@@V?$SmartPointer@VNode@Moo@@@@@Z ENDP ; Moo::ChannelBinder::ChannelBinder
;	COMDAT xdata$x
xdata$x	SEGMENT
__unwindtable$??1ChannelBinder@Moo@@QAE@XZ DD 0ffffffffH
	DD	FLAT:__unwindfunclet$??1ChannelBinder@Moo@@QAE@XZ$0
__ehfuncinfo$??1ChannelBinder@Moo@@QAE@XZ DD 019930522H
	DD	01H
	DD	FLAT:__unwindtable$??1ChannelBinder@Moo@@QAE@XZ
	DD	2 DUP(00H)
	DD	2 DUP(00H)
	DD	00H
	DD	01H
; Function compile flags: /Odtp /RTCsu /ZI
xdata$x	ENDS
;	COMDAT ??1ChannelBinder@Moo@@QAE@XZ
_TEXT	SEGMENT
_this$ = -20						; size = 4
__$EHRec$ = -12						; size = 12
??1ChannelBinder@Moo@@QAE@XZ PROC			; Moo::ChannelBinder::~ChannelBinder, COMDAT
; _this$ = ecx
; Line 116
  00000	55		 push	 ebp
  00001	8b ec		 mov	 ebp, esp
  00003	6a ff		 push	 -1
  00005	68 00 00 00 00	 push	 __ehhandler$??1ChannelBinder@Moo@@QAE@XZ
  0000a	64 a1 00 00 00
	00		 mov	 eax, DWORD PTR fs:0
  00010	50		 push	 eax
  00011	81 ec cc 00 00
	00		 sub	 esp, 204		; 000000ccH
  00017	53		 push	 ebx
  00018	56		 push	 esi
  00019	57		 push	 edi
  0001a	51		 push	 ecx
  0001b	8d bd 28 ff ff
	ff		 lea	 edi, DWORD PTR [ebp-216]
  00021	b9 33 00 00 00	 mov	 ecx, 51			; 00000033H
  00026	b8 cc cc cc cc	 mov	 eax, -858993460		; ccccccccH
  0002b	f3 ab		 rep stosd
  0002d	59		 pop	 ecx
  0002e	a1 00 00 00 00	 mov	 eax, DWORD PTR ___security_cookie
  00033	33 c5		 xor	 eax, ebp
  00035	50		 push	 eax
  00036	8d 45 f4	 lea	 eax, DWORD PTR __$EHRec$[ebp]
  00039	64 a3 00 00 00
	00		 mov	 DWORD PTR fs:0, eax
  0003f	89 4d ec	 mov	 DWORD PTR _this$[ebp], ecx
  00042	c7 45 fc 00 00
	00 00		 mov	 DWORD PTR __$EHRec$[ebp+8], 0
; Line 117
  00049	8b 4d ec	 mov	 ecx, DWORD PTR _this$[ebp]
  0004c	83 c1 04	 add	 ecx, 4
  0004f	e8 00 00 00 00	 call	 ??1?$SmartPointer@VNode@Moo@@@@QAE@XZ
  00054	c7 45 fc ff ff
	ff ff		 mov	 DWORD PTR __$EHRec$[ebp+8], -1
  0005b	8b 4d ec	 mov	 ecx, DWORD PTR _this$[ebp]
  0005e	e8 00 00 00 00	 call	 ??1?$SmartPointer@VAnimationChannel@Moo@@@@QAE@XZ
  00063	8b 4d f4	 mov	 ecx, DWORD PTR __$EHRec$[ebp]
  00066	64 89 0d 00 00
	00 00		 mov	 DWORD PTR fs:0, ecx
  0006d	59		 pop	 ecx
  0006e	5f		 pop	 edi
  0006f	5e		 pop	 esi
  00070	5b		 pop	 ebx
  00071	81 c4 d8 00 00
	00		 add	 esp, 216		; 000000d8H
  00077	3b ec		 cmp	 ebp, esp
  00079	e8 00 00 00 00	 call	 __RTC_CheckEsp
  0007e	8b e5		 mov	 esp, ebp
  00080	5d		 pop	 ebp
  00081	c3		 ret	 0
_TEXT	ENDS
;	COMDAT text$x
text$x	SEGMENT
__unwindfunclet$??1ChannelBinder@Moo@@QAE@XZ$0:
  00000	8b 4d ec	 mov	 ecx, DWORD PTR _this$[ebp]
  00003	e9 00 00 00 00	 jmp	 ??1?$SmartPointer@VAnimationChannel@Moo@@@@QAE@XZ
__ehhandler$??1ChannelBinder@Moo@@QAE@XZ:
  00008	8b 54 24 08	 mov	 edx, DWORD PTR [esp+8]
  0000c	8d 42 0c	 lea	 eax, DWORD PTR [edx+12]
  0000f	8b 8a 24 ff ff
	ff		 mov	 ecx, DWORD PTR [edx-220]
  00015	33 c8		 xor	 ecx, eax
  00017	e8 00 00 00 00	 call	 @__security_check_cookie@4
  0001c	b8 00 00 00 00	 mov	 eax, OFFSET __ehfuncinfo$??1ChannelBinder@Moo@@QAE@XZ
  00021	e9 00 00 00 00	 jmp	 ___CxxFrameHandler3
text$x	ENDS
??1ChannelBinder@Moo@@QAE@XZ ENDP			; Moo::ChannelBinder::~ChannelBinder
; Function compile flags: /Odtp /RTCsu /ZI
;	COMDAT ?channel@ChannelBinder@Moo@@QBE?AV?$SmartPointer@VAnimationChannel@Moo@@@@XZ
_TEXT	SEGMENT
$T144088 = -212						; size = 4
_this$ = -8						; size = 4
___$ReturnUdt$ = 8					; size = 4
?channel@ChannelBinder@Moo@@QBE?AV?$SmartPointer@VAnimationChannel@Moo@@@@XZ PROC ; Moo::ChannelBinder::channel, COMDAT
; _this$ = ecx
; Line 133
  00000	55		 push	 ebp
  00001	8b ec		 mov	 ebp, esp
  00003	81 ec d8 00 00
	00		 sub	 esp, 216		; 000000d8H
  00009	53		 push	 ebx
  0000a	56		 push	 esi
  0000b	57		 push	 edi
  0000c	51		 push	 ecx
  0000d	8d bd 28 ff ff
	ff		 lea	 edi, DWORD PTR [ebp-216]
  00013	b9 36 00 00 00	 mov	 ecx, 54			; 00000036H
  00018	b8 cc cc cc cc	 mov	 eax, -858993460		; ccccccccH
  0001d	f3 ab		 rep stosd
  0001f	59		 pop	 ecx
  00020	89 4d f8	 mov	 DWORD PTR _this$[ebp], ecx
  00023	c7 85 2c ff ff
	ff 00 00 00 00	 mov	 DWORD PTR $T144088[ebp], 0
; Line 134
  0002d	8b 45 f8	 mov	 eax, DWORD PTR _this$[ebp]
  00030	50		 push	 eax
  00031	8b 4d 08	 mov	 ecx, DWORD PTR ___$ReturnUdt$[ebp]
  00034	e8 00 00 00 00	 call	 ??0?$SmartPointer@VAnimationChannel@Moo@@@@QAE@ABV0@@Z ; SmartPointer<Moo::AnimationChannel>::SmartPointer<Moo::AnimationChannel>
  00039	8b 8d 2c ff ff
	ff		 mov	 ecx, DWORD PTR $T144088[ebp]
  0003f	83 c9 01	 or	 ecx, 1
  00042	89 8d 2c ff ff
	ff		 mov	 DWORD PTR $T144088[ebp], ecx
  00048	8b 45 08	 mov	 eax, DWORD PTR ___$ReturnUdt$[ebp]
; Line 135
  0004b	5f		 pop	 edi
  0004c	5e		 pop	 esi
  0004d	5b		 pop	 ebx
  0004e	81 c4 d8 00 00
	00		 add	 esp, 216		; 000000d8H
  00054	3b ec		 cmp	 ebp, esp
  00056	e8 00 00 00 00	 call	 __RTC_CheckEsp
  0005b	8b e5		 mov	 esp, ebp
  0005d	5d		 pop	 ebp
  0005e	c2 04 00	 ret	 4
?channel@ChannelBinder@Moo@@QBE?AV?$SmartPointer@VAnimationChannel@Moo@@@@XZ ENDP ; Moo::ChannelBinder::channel
_TEXT	ENDS
PUBLIC	??1?$ConstSmartPointer@VNode@Moo@@@@QAE@XZ	; ConstSmartPointer<Moo::Node>::~ConstSmartPointer<Moo::Node>
; Function compile flags: /Odtp /RTCsu /ZI
;	COMDAT ??1?$SmartPointer@VNode@Moo@@@@QAE@XZ
_TEXT	SEGMENT
_this$ = -8						; size = 4
??1?$SmartPointer@VNode@Moo@@@@QAE@XZ PROC		; SmartPointer<Moo::Node>::~SmartPointer<Moo::Node>, COMDAT
; _this$ = ecx
  00000	55		 push	 ebp
  00001	8b ec		 mov	 ebp, esp
  00003	81 ec cc 00 00
	00		 sub	 esp, 204		; 000000ccH
  00009	53		 push	 ebx
  0000a	56		 push	 esi
  0000b	57		 push	 edi
  0000c	51		 push	 ecx
  0000d	8d bd 34 ff ff
	ff		 lea	 edi, DWORD PTR [ebp-204]
  00013	b9 33 00 00 00	 mov	 ecx, 51			; 00000033H
  00018	b8 cc cc cc cc	 mov	 eax, -858993460		; ccccccccH
  0001d	f3 ab		 rep stosd
  0001f	59		 pop	 ecx
  00020	89 4d f8	 mov	 DWORD PTR _this$[ebp], ecx
  00023	8b 4d f8	 mov	 ecx, DWORD PTR _this$[ebp]
  00026	e8 00 00 00 00	 call	 ??1?$ConstSmartPointer@VNode@Moo@@@@QAE@XZ ; ConstSmartPointer<Moo::Node>::~ConstSmartPointer<Moo::Node>
  0002b	5f		 pop	 edi
  0002c	5e		 pop	 esi
  0002d	5b		 pop	 ebx
  0002e	81 c4 cc 00 00
	00		 add	 esp, 204		; 000000ccH
  00034	3b ec		 cmp	 ebp, esp
  00036	e8 00 00 00 00	 call	 __RTC_CheckEsp
  0003b	8b e5		 mov	 esp, ebp
  0003d	5d		 pop	 ebp
  0003e	c3		 ret	 0
??1?$SmartPointer@VNode@Moo@@@@QAE@XZ ENDP		; SmartPointer<Moo::Node>::~SmartPointer<Moo::Node>
_TEXT	ENDS
PUBLIC	??1?$ConstSmartPointer@VAnimationChannel@Moo@@@@QAE@XZ ; ConstSmartPointer<Moo::AnimationChannel>::~ConstSmartPointer<Moo::AnimationChannel>
; Function compile flags: /Odtp /RTCsu /ZI
;	COMDAT ??1?$SmartPointer@VAnimationChannel@Moo@@@@QAE@XZ
_TEXT	SEGMENT
_this$ = -8						; size = 4
??1?$SmartPointer@VAnimationChannel@Moo@@@@QAE@XZ PROC	; SmartPointer<Moo::AnimationChannel>::~SmartPointer<Moo::AnimationChannel>, COMDAT
; _this$ = ecx
  00000	55		 push	 ebp
  00001	8b ec		 mov	 ebp, esp
  00003	81 ec cc 00 00
	00		 sub	 esp, 204		; 000000ccH
  00009	53		 push	 ebx
  0000a	56		 push	 esi
  0000b	57		 push	 edi
  0000c	51		 push	 ecx
  0000d	8d bd 34 ff ff
	ff		 lea	 edi, DWORD PTR [ebp-204]
  00013	b9 33 00 00 00	 mov	 ecx, 51			; 00000033H
  00018	b8 cc cc cc cc	 mov	 eax, -858993460		; ccccccccH
  0001d	f3 ab		 rep stosd
  0001f	59		 pop	 ecx
  00020	89 4d f8	 mov	 DWORD PTR _this$[ebp], ecx
  00023	8b 4d f8	 mov	 ecx, DWORD PTR _this$[ebp]
  00026	e8 00 00 00 00	 call	 ??1?$ConstSmartPointer@VAnimationChannel@Moo@@@@QAE@XZ ; ConstSmartPointer<Moo::AnimationChannel>::~ConstSmartPointer<Moo::AnimationChannel>
  0002b	5f		 pop	 edi
  0002c	5e		 pop	 esi
  0002d	5b		 pop	 ebx
  0002e	81 c4 cc 00 00
	00		 add	 esp, 204		; 000000ccH
  00034	3b ec		 cmp	 ebp, esp
  00036	e8 00 00 00 00	 call	 __RTC_CheckEsp
  0003b	8b e5		 mov	 esp, ebp
  0003d	5d		 pop	 ebp
  0003e	c3		 ret	 0
??1?$SmartPointer@VAnimationChannel@Moo@@@@QAE@XZ ENDP	; SmartPointer<Moo::AnimationChannel>::~SmartPointer<Moo::AnimationChannel>
_TEXT	ENDS
PUBLIC	??1?$ConstSmartPointer@VAnimation@Moo@@@@QAE@XZ	; ConstSmartPointer<Moo::Animation>::~ConstSmartPointer<Moo::Animation>
; Function compile flags: /Odtp /RTCsu /ZI
;	COMDAT ??1?$SmartPointer@VAnimation@Moo@@@@QAE@XZ
_TEXT	SEGMENT
_this$ = -8						; size = 4
??1?$SmartPointer@VAnimation@Moo@@@@QAE@XZ PROC		; SmartPointer<Moo::Animation>::~SmartPointer<Moo::Animation>, COMDAT
; _this$ = ecx
  00000	55		 push	 ebp
  00001	8b ec		 mov	 ebp, esp
  00003	81 ec cc 00 00
	00		 sub	 esp, 204		; 000000ccH
  00009	53		 push	 ebx
  0000a	56		 push	 esi
  0000b	57		 push	 edi
  0000c	51		 push	 ecx
  0000d	8d bd 34 ff ff
	ff		 lea	 edi, DWORD PTR [ebp-204]
  00013	b9 33 00 00 00	 mov	 ecx, 51			; 00000033H
  00018	b8 cc cc cc cc	 mov	 eax, -858993460		; ccccccccH
  0001d	f3 ab		 rep stosd
  0001f	59		 pop	 ecx
  00020	89 4d f8	 mov	 DWORD PTR _this$[ebp], ecx
  00023	8b 4d f8	 mov	 ecx, DWORD PTR _this$[ebp]
  00026	e8 00 00 00 00	 call	 ??1?$ConstSmartPointer@VAnimation@Moo@@@@QAE@XZ ; ConstSmartPointer<Moo::Animation>::~ConstSmartPointer<Moo::Animation>
  0002b	5f		 pop	 edi
  0002c	5e		 pop	 esi
  0002d	5b		 pop	 ebx
  0002e	81 c4 cc 00 00
	00		 add	 esp, 204		; 000000ccH
  00034	3b ec		 cmp	 ebp, esp
  00036	e8 00 00 00 00	 call	 __RTC_CheckEsp
  0003b	8b e5		 mov	 esp, ebp
  0003d	5d		 pop	 ebp
  0003e	c3		 ret	 0
??1?$SmartPointer@VAnimation@Moo@@@@QAE@XZ ENDP		; SmartPointer<Moo::Animation>::~SmartPointer<Moo::Animation>
_TEXT	ENDS
PUBLIC	??3@YAXPAX@Z					; operator delete
PUBLIC	??1Animation@Moo@@EAE@XZ			; Moo::Animation::~Animation
; Function compile flags: /Odtp /RTCsu /ZI
;	COMDAT ??_GAnimation@Moo@@EAEPAXI@Z
_TEXT	SEGMENT
_this$ = -8						; size = 4
___flags$ = 8						; size = 4
??_GAnimation@Moo@@EAEPAXI@Z PROC			; Moo::Animation::`scalar deleting destructor', COMDAT
; _this$ = ecx
  00000	55		 push	 ebp
  00001	8b ec		 mov	 ebp, esp
  00003	81 ec cc 00 00
	00		 sub	 esp, 204		; 000000ccH
  00009	53		 push	 ebx
  0000a	56		 push	 esi
  0000b	57		 push	 edi
  0000c	51		 push	 ecx
  0000d	8d bd 34 ff ff
	ff		 lea	 edi, DWORD PTR [ebp-204]
  00013	b9 33 00 00 00	 mov	 ecx, 51			; 00000033H
  00018	b8 cc cc cc cc	 mov	 eax, -858993460		; ccccccccH
  0001d	f3 ab		 rep stosd
  0001f	59		 pop	 ecx
  00020	89 4d f8	 mov	 DWORD PTR _this$[ebp], ecx
  00023	8b 4d f8	 mov	 ecx, DWORD PTR _this$[ebp]
  00026	e8 00 00 00 00	 call	 ??1Animation@Moo@@EAE@XZ ; Moo::Animation::~Animation
  0002b	8b 45 08	 mov	 eax, DWORD PTR ___flags$[ebp]
  0002e	83 e0 01	 and	 eax, 1
  00031	74 0c		 je	 SHORT $LN1@scalar
  00033	8b 45 f8	 mov	 eax, DWORD PTR _this$[ebp]
  00036	50		 push	 eax
  00037	e8 00 00 00 00	 call	 ??3@YAXPAX@Z		; operator delete
  0003c	83 c4 04	 add	 esp, 4
$LN1@scalar:
  0003f	8b 45 f8	 mov	 eax, DWORD PTR _this$[ebp]
  00042	5f		 pop	 edi
  00043	5e		 pop	 esi
  00044	5b		 pop	 ebx
  00045	81 c4 cc 00 00
	00		 add	 esp, 204		; 000000ccH
  0004b	3b ec		 cmp	 ebp, esp
  0004d	e8 00 00 00 00	 call	 __RTC_CheckEsp
  00052	8b e5		 mov	 esp, ebp
  00054	5d		 pop	 ebp
  00055	c2 04 00	 ret	 4
??_GAnimation@Moo@@EAEPAXI@Z ENDP			; Moo::Animation::`scalar deleting destructor'
_TEXT	ENDS
PUBLIC	??1?$ConstSmartPointer@VStreamedAnimation@Moo@@@@QAE@XZ ; ConstSmartPointer<Moo::StreamedAnimation>::~ConstSmartPointer<Moo::StreamedAnimation>
; Function compile flags: /Odtp /RTCsu /ZI
;	COMDAT ??1?$SmartPointer@VStreamedAnimation@Moo@@@@QAE@XZ
_TEXT	SEGMENT
_this$ = -8						; size = 4
??1?$SmartPointer@VStreamedAnimation@Moo@@@@QAE@XZ PROC	; SmartPointer<Moo::StreamedAnimation>::~SmartPointer<Moo::StreamedAnimation>, COMDAT
; _this$ = ecx
  00000	55		 push	 ebp
  00001	8b ec		 mov	 ebp, esp
  00003	81 ec cc 00 00
	00		 sub	 esp, 204		; 000000ccH
  00009	53		 push	 ebx
  0000a	56		 push	 esi
  0000b	57		 push	 edi
  0000c	51		 push	 ecx
  0000d	8d bd 34 ff ff
	ff		 lea	 edi, DWORD PTR [ebp-204]
  00013	b9 33 00 00 00	 mov	 ecx, 51			; 00000033H
  00018	b8 cc cc cc cc	 mov	 eax, -858993460		; ccccccccH
  0001d	f3 ab		 rep stosd
  0001f	59		 pop	 ecx
  00020	89 4d f8	 mov	 DWORD PTR _this$[ebp], ecx
  00023	8b 4d f8	 mov	 ecx, DWORD PTR _this$[ebp]
  00026	e8 00 00 00 00	 call	 ??1?$ConstSmartPointer@VStreamedAnimation@Moo@@@@QAE@XZ ; ConstSmartPointer<Moo::StreamedAnimation>::~ConstSmartPointer<Moo::StreamedAnimation>
  0002b	5f		 pop	 edi
  0002c	5e		 pop	 esi
  0002d	5b		 pop	 ebx
  0002e	81 c4 cc 00 00
	00		 add	 esp, 204		; 000000ccH
  00034	3b ec		 cmp	 ebp, esp
  00036	e8 00 00 00 00	 call	 __RTC_CheckEsp
  0003b	8b e5		 mov	 esp, ebp
  0003d	5d		 pop	 ebp
  0003e	c3		 ret	 0
??1?$SmartPointer@VStreamedAnimation@Moo@@@@QAE@XZ ENDP	; SmartPointer<Moo::StreamedAnimation>::~SmartPointer<Moo::StreamedAnimation>
_TEXT	ENDS
PUBLIC	??3Aligned@@SAXPAX@Z				; Aligned::operator delete
PUBLIC	??4?$SmartPointer@VNode@Moo@@@@QAEAAV0@ABV0@@Z	; SmartPointer<Moo::Node>::operator=
PUBLIC	??2Aligned@@SAPAXI@Z				; Aligned::operator new
PUBLIC	??B?$ConstSmartPointer@VNode@Moo@@@@QBEPQ0@PBVNode@Moo@@XZ ; ConstSmartPointer<Moo::Node>::operator Moo::Node const * ConstSmartPointer<Moo::Node>::*
PUBLIC	??0?$SmartPointer@VNode@Moo@@@@QAE@PAVNode@Moo@@_N@Z ; SmartPointer<Moo::Node>::SmartPointer<Moo::Node>
PUBLIC	?__LINE__Var@?1???0Animation@Moo@@QAE@PAV12@@Z@4JA ; `Moo::Animation::Animation'::`2'::__LINE__Var
PUBLIC	??0Animation@Moo@@QAE@PAV01@@Z			; Moo::Animation::Animation
EXTRN	?findOrAdd@NodeCatalogue@Moo@@SAPAVNode@2@V?$SmartPointer@VNode@Moo@@@@@Z:PROC ; Moo::NodeCatalogue::findOrAdd
EXTRN	?identifier@Node@Moo@@QAEXABV?$basic_string@DU?$char_traits@D@std@@V?$allocator@D@2@@std@@@Z:PROC ; Moo::Node::identifier
EXTRN	??0Node@Moo@@QAE@XZ:PROC			; Moo::Node::Node
EXTRN	?find@NodeCatalogue@Moo@@SA?AV?$SmartPointer@VNode@Moo@@@@PBD@Z:PROC ; Moo::NodeCatalogue::find
EXTRN	__imp_?c_str@?$basic_string@DU?$char_traits@D@std@@V?$allocator@D@2@@std@@QBEPBDXZ:PROC
;	COMDAT ?__LINE__Var@?1???0Animation@Moo@@QAE@PAV12@@Z@4JA
; File e:\bw191\src\lib\moo\animation.cpp
_DATA	SEGMENT
?__LINE__Var@?1???0Animation@Moo@@QAE@PAV12@@Z@4JA DD 041H ; `Moo::Animation::Animation'::`2'::__LINE__Var
_DATA	ENDS
;	COMDAT xdata$x
xdata$x	SEGMENT
__ehfuncinfo$??0Animation@Moo@@QAE@PAV01@@Z DD 019930522H
	DD	012H
	DD	FLAT:__unwindtable$??0Animation@Moo@@QAE@PAV01@@Z
	DD	2 DUP(00H)
	DD	2 DUP(00H)
	DD	00H
	DD	01H
__unwindtable$??0Animation@Moo@@QAE@PAV01@@Z DD 0ffffffffH
	DD	FLAT:__unwindfunclet$??0Animation@Moo@@QAE@PAV01@@Z$0
	DD	00H
	DD	FLAT:__unwindfunclet$??0Animation@Moo@@QAE@PAV01@@Z$1
	DD	01H
	DD	FLAT:__unwindfunclet$??0Animation@Moo@@QAE@PAV01@@Z$2
	DD	02H
	DD	FLAT:__unwindfunclet$??0Animation@Moo@@QAE@PAV01@@Z$3
	DD	03H
	DD	FLAT:__unwindfunclet$??0Animation@Moo@@QAE@PAV01@@Z$4
	DD	04H
	DD	FLAT:__unwindfunclet$??0Animation@Moo@@QAE@PAV01@@Z$5
	DD	05H
	DD	FLAT:__unwindfunclet$??0Animation@Moo@@QAE@PAV01@@Z$6
	DD	06H
	DD	FLAT:__unwindfunclet$??0Animation@Moo@@QAE@PAV01@@Z$7
	DD	07H
	DD	FLAT:__unwindfunclet$??0Animation@Moo@@QAE@PAV01@@Z$8
	DD	08H
	DD	FLAT:__unwindfunclet$??0Animation@Moo@@QAE@PAV01@@Z$9
	DD	09H
	DD	FLAT:__unwindfunclet$??0Animation@Moo@@QAE@PAV01@@Z$10
	DD	0aH
	DD	FLAT:__unwindfunclet$??0Animation@Moo@@QAE@PAV01@@Z$11
	DD	0aH
	DD	FLAT:__unwindfunclet$??0Animation@Moo@@QAE@PAV01@@Z$12
	DD	0aH
	DD	FLAT:__unwindfunclet$??0Animation@Moo@@QAE@PAV01@@Z$14
	DD	0aH
	DD	FLAT:__unwindfunclet$??0Animation@Moo@@QAE@PAV01@@Z$15
	DD	0aH
	DD	FLAT:__unwindfunclet$??0Animation@Moo@@QAE@PAV01@@Z$17
	DD	09H
	DD	FLAT:__unwindfunclet$??0Animation@Moo@@QAE@PAV01@@Z$18
	DD	09H
	DD	FLAT:__unwindfunclet$??0Animation@Moo@@QAE@PAV01@@Z$20
; Function compile flags: /Odtp /RTCsu /ZI
xdata$x	ENDS
;	COMDAT ??0Animation@Moo@@QAE@PAV01@@Z
_TEXT	SEGMENT
tv349 = -436						; size = 4
tv341 = -436						; size = 4
tv344 = -432						; size = 4
tv336 = -432						; size = 4
tv347 = -428						; size = 4
tv339 = -428						; size = 4
tv343 = -424						; size = 4
tv335 = -424						; size = 4
tv332 = -424						; size = 4
tv331 = -420						; size = 4
tv222 = -420						; size = 4
tv209 = -420						; size = 4
tv179 = -420						; size = 4
tv173 = -420						; size = 4
$T144106 = -412						; size = 4
$T144107 = -400						; size = 4
$T144108 = -388						; size = 4
$T144111 = -376						; size = 4
$T144112 = -364						; size = 4
$T144113 = -352						; size = 8
$T144114 = -336						; size = 4
$T144115 = -324						; size = 4
$T144116 = -312						; size = 8
$T144117 = -296						; size = 4
$T144118 = -284						; size = 4
_pNode$136439 = -80					; size = 4
_pAC$136436 = -68					; size = 4
_i$136432 = -56						; size = 4
_nullMooNodePointer$ = -44				; size = 4
__BW_GUARD$ = -29					; size = 1
_this$ = -20						; size = 4
__$EHRec$ = -12						; size = 12
_anim$ = 8						; size = 4
??0Animation@Moo@@QAE@PAV01@@Z PROC			; Moo::Animation::Animation, COMDAT
; _this$ = ecx
; Line 73
  00000	55		 push	 ebp
  00001	8b ec		 mov	 ebp, esp
  00003	6a ff		 push	 -1
  00005	68 00 00 00 00	 push	 __ehhandler$??0Animation@Moo@@QAE@PAV01@@Z
  0000a	64 a1 00 00 00
	00		 mov	 eax, DWORD PTR fs:0
  00010	50		 push	 eax
  00011	81 ec a8 01 00
	00		 sub	 esp, 424		; 000001a8H
  00017	53		 push	 ebx
  00018	56		 push	 esi
  00019	57		 push	 edi
  0001a	51		 push	 ecx
  0001b	8d bd 4c fe ff
	ff		 lea	 edi, DWORD PTR [ebp-436]
  00021	b9 6a 00 00 00	 mov	 ecx, 106		; 0000006aH
  00026	b8 cc cc cc cc	 mov	 eax, -858993460		; ccccccccH
  0002b	f3 ab		 rep stosd
  0002d	59		 pop	 ecx
  0002e	a1 00 00 00 00	 mov	 eax, DWORD PTR ___security_cookie
  00033	33 c5		 xor	 eax, ebp
  00035	50		 push	 eax
  00036	8d 45 f4	 lea	 eax, DWORD PTR __$EHRec$[ebp]
  00039	64 a3 00 00 00
	00		 mov	 DWORD PTR fs:0, eax
  0003f	89 4d ec	 mov	 DWORD PTR _this$[ebp], ecx
  00042	8b 4d ec	 mov	 ecx, DWORD PTR _this$[ebp]
  00045	e8 00 00 00 00	 call	 ??0ReferenceCount@@QAE@XZ ; ReferenceCount::ReferenceCount
  0004a	c7 45 fc 00 00
	00 00		 mov	 DWORD PTR __$EHRec$[ebp+8], 0
  00051	8b 45 ec	 mov	 eax, DWORD PTR _this$[ebp]
  00054	c7 00 00 00 00
	00		 mov	 DWORD PTR [eax], OFFSET ??_7Animation@Moo@@6B@
  0005a	8b 4d 08	 mov	 ecx, DWORD PTR _anim$[ebp]
  0005d	e8 00 00 00 00	 call	 ?totalTime@Animation@Moo@@QBEMXZ ; Moo::Animation::totalTime
  00062	8b 45 ec	 mov	 eax, DWORD PTR _this$[ebp]
  00065	d9 58 08	 fstp	 DWORD PTR [eax+8]
  00068	8b 4d ec	 mov	 ecx, DWORD PTR _this$[ebp]
  0006b	83 c1 0c	 add	 ecx, 12			; 0000000cH
  0006e	e8 00 00 00 00	 call	 ??0?$vector@VChannelBinder@Moo@@V?$allocator@VChannelBinder@Moo@@@std@@@std@@QAE@XZ ; std::vector<Moo::ChannelBinder,std::allocator<Moo::ChannelBinder> >::vector<Moo::ChannelBinder,std::allocator<Moo::ChannelBinder> >
  00073	c6 45 fc 01	 mov	 BYTE PTR __$EHRec$[ebp+8], 1
  00077	8b 45 ec	 mov	 eax, DWORD PTR _this$[ebp]
  0007a	83 c0 20	 add	 eax, 32			; 00000020H
  0007d	50		 push	 eax
  0007e	8b 4d 08	 mov	 ecx, DWORD PTR _anim$[ebp]
  00081	e8 00 00 00 00	 call	 ?identifier@Animation@Moo@@QBE?BV?$basic_string@DU?$char_traits@D@std@@V?$allocator@D@2@@std@@XZ ; Moo::Animation::identifier
  00086	c6 45 fc 02	 mov	 BYTE PTR __$EHRec$[ebp+8], 2
  0008a	8b 45 ec	 mov	 eax, DWORD PTR _this$[ebp]
  0008d	83 c0 40	 add	 eax, 64			; 00000040H
  00090	50		 push	 eax
  00091	8b 4d 08	 mov	 ecx, DWORD PTR _anim$[ebp]
  00094	e8 00 00 00 00	 call	 ?internalIdentifier@Animation@Moo@@QBE?BV?$basic_string@DU?$char_traits@D@std@@V?$allocator@D@2@@std@@XZ ; Moo::Animation::internalIdentifier
  00099	c6 45 fc 03	 mov	 BYTE PTR __$EHRec$[ebp+8], 3
  0009d	8b 45 ec	 mov	 eax, DWORD PTR _this$[ebp]
  000a0	c7 40 60 00 00
	00 00		 mov	 DWORD PTR [eax+96], 0
  000a7	8b 45 08	 mov	 eax, DWORD PTR _anim$[ebp]
  000aa	83 c0 64	 add	 eax, 100		; 00000064H
  000ad	50		 push	 eax
  000ae	8b 4d ec	 mov	 ecx, DWORD PTR _this$[ebp]
  000b1	83 c1 64	 add	 ecx, 100		; 00000064H
  000b4	e8 00 00 00 00	 call	 ??0?$SmartPointer@VStreamedAnimation@Moo@@@@QAE@ABV0@@Z ; SmartPointer<Moo::StreamedAnimation>::SmartPointer<Moo::StreamedAnimation>
  000b9	c6 45 fc 04	 mov	 BYTE PTR __$EHRec$[ebp+8], 4
  000bd	6a 00		 push	 0
  000bf	8b 45 08	 mov	 eax, DWORD PTR _anim$[ebp]
  000c2	50		 push	 eax
  000c3	8b 4d ec	 mov	 ecx, DWORD PTR _this$[ebp]
  000c6	83 c1 68	 add	 ecx, 104		; 00000068H
  000c9	e8 00 00 00 00	 call	 ??0?$SmartPointer@VAnimation@Moo@@@@QAE@PAVAnimation@Moo@@_N@Z ; SmartPointer<Moo::Animation>::SmartPointer<Moo::Animation>
  000ce	c6 45 fc 05	 mov	 BYTE PTR __$EHRec$[ebp+8], 5
  000d2	8b 45 08	 mov	 eax, DWORD PTR _anim$[ebp]
  000d5	83 c0 6c	 add	 eax, 108		; 0000006cH
  000d8	50		 push	 eax
  000d9	8b 4d ec	 mov	 ecx, DWORD PTR _this$[ebp]
  000dc	83 c1 6c	 add	 ecx, 108		; 0000006cH
  000df	e8 00 00 00 00	 call	 ??0?$vector@V?$SmartPointer@VAnimationChannel@Moo@@@@V?$allocator@V?$SmartPointer@VAnimationChannel@Moo@@@@@std@@@std@@QAE@ABV01@@Z ; std::vector<SmartPointer<Moo::AnimationChannel>,std::allocator<SmartPointer<Moo::AnimationChannel> > >::vector<SmartPointer<Moo::AnimationChannel>,std::allocator<SmartPointer<Moo::AnimationChannel> > >
  000e4	c6 45 fc 06	 mov	 BYTE PTR __$EHRec$[ebp+8], 6
; Line 74
  000e8	a1 00 00 00 00	 mov	 eax, DWORD PTR ?__LINE__Var@?1???0Animation@Moo@@QAE@PAV12@@Z@4JA
  000ed	83 c0 09	 add	 eax, 9
  000f0	50		 push	 eax
  000f1	68 00 00 00 00	 push	 OFFSET ??_C@_0CD@PMFAICH@e?3?2bw191?2src?2lib?2moo?2animation?4c@
  000f6	68 00 00 00 00	 push	 OFFSET ??_C@_0BK@FKGHIPLC@Moo?3?3Animation?3?3Animation?$AA@
  000fb	8d 4d e3	 lea	 ecx, DWORD PTR __BW_GUARD$[ebp]
  000fe	e8 00 00 00 00	 call	 ??0ScopedStackTrack@@QAE@PBD0I@Z ; ScopedStackTrack::ScopedStackTrack
  00103	c6 45 fc 07	 mov	 BYTE PTR __$EHRec$[ebp+8], 7
; Line 75
  00107	6a 00		 push	 0
  00109	6a 00		 push	 0
  0010b	8d 4d d4	 lea	 ecx, DWORD PTR _nullMooNodePointer$[ebp]
  0010e	e8 00 00 00 00	 call	 ??0?$SmartPointer@VNode@Moo@@@@QAE@PAVNode@Moo@@_N@Z ; SmartPointer<Moo::Node>::SmartPointer<Moo::Node>
  00113	c6 45 fc 08	 mov	 BYTE PTR __$EHRec$[ebp+8], 8
; Line 77
  00117	c7 45 c8 00 00
	00 00		 mov	 DWORD PTR _i$136432[ebp], 0
  0011e	eb 09		 jmp	 SHORT $LN6@Animation@2
$LN5@Animation@2:
  00120	8b 45 c8	 mov	 eax, DWORD PTR _i$136432[ebp]
  00123	83 c0 01	 add	 eax, 1
  00126	89 45 c8	 mov	 DWORD PTR _i$136432[ebp], eax
$LN6@Animation@2:
  00129	8b 4d 08	 mov	 ecx, DWORD PTR _anim$[ebp]
  0012c	e8 00 00 00 00	 call	 ?nChannelBinders@Animation@Moo@@QBEIXZ ; Moo::Animation::nChannelBinders
  00131	39 45 c8	 cmp	 DWORD PTR _i$136432[ebp], eax
  00134	0f 83 bc 02 00
	00		 jae	 $LN4@Animation@2
; Line 79
  0013a	8d 45 bc	 lea	 eax, DWORD PTR _pAC$136436[ebp]
  0013d	50		 push	 eax
  0013e	8b 4d c8	 mov	 ecx, DWORD PTR _i$136432[ebp]
  00141	51		 push	 ecx
  00142	8b 4d 08	 mov	 ecx, DWORD PTR _anim$[ebp]
  00145	e8 00 00 00 00	 call	 ?channelBinder@Animation@Moo@@QAEAAVChannelBinder@2@I@Z ; Moo::Animation::channelBinder
  0014a	8b c8		 mov	 ecx, eax
  0014c	e8 00 00 00 00	 call	 ?channel@ChannelBinder@Moo@@QBE?AV?$SmartPointer@VAnimationChannel@Moo@@@@XZ ; Moo::ChannelBinder::channel
  00151	c6 45 fc 09	 mov	 BYTE PTR __$EHRec$[ebp+8], 9
; Line 85
  00155	8d 4d bc	 lea	 ecx, DWORD PTR _pAC$136436[ebp]
  00158	e8 00 00 00 00	 call	 ??C?$SmartPointer@VAnimationChannel@Moo@@@@QBEPAVAnimationChannel@Moo@@XZ ; SmartPointer<Moo::AnimationChannel>::operator->
  0015d	89 85 5c fe ff
	ff		 mov	 DWORD PTR tv179[ebp], eax
  00163	8b 85 5c fe ff
	ff		 mov	 eax, DWORD PTR tv179[ebp]
  00169	8b 10		 mov	 edx, DWORD PTR [eax]
  0016b	8b f4		 mov	 esi, esp
  0016d	8b 8d 5c fe ff
	ff		 mov	 ecx, DWORD PTR tv179[ebp]
  00173	8b 42 2c	 mov	 eax, DWORD PTR [edx+44]
  00176	ff d0		 call	 eax
  00178	3b f4		 cmp	 esi, esp
  0017a	e8 00 00 00 00	 call	 __RTC_CheckEsp
  0017f	83 f8 02	 cmp	 eax, 2
  00182	0f 84 d7 01 00
	00		 je	 $LN3@Animation@2
; Line 87
  00188	8d 4d bc	 lea	 ecx, DWORD PTR _pAC$136436[ebp]
  0018b	e8 00 00 00 00	 call	 ??C?$SmartPointer@VAnimationChannel@Moo@@@@QBEPAVAnimationChannel@Moo@@XZ ; SmartPointer<Moo::AnimationChannel>::operator->
  00190	8b c8		 mov	 ecx, eax
  00192	e8 00 00 00 00	 call	 ?identifier@AnimationChannel@Moo@@QBEABV?$basic_string@DU?$char_traits@D@std@@V?$allocator@D@2@@std@@XZ ; Moo::AnimationChannel::identifier
  00197	8b f4		 mov	 esi, esp
  00199	8b c8		 mov	 ecx, eax
  0019b	ff 15 00 00 00
	00		 call	 DWORD PTR __imp_?c_str@?$basic_string@DU?$char_traits@D@std@@V?$allocator@D@2@@std@@QBEPBDXZ
  001a1	3b f4		 cmp	 esi, esp
  001a3	e8 00 00 00 00	 call	 __RTC_CheckEsp
  001a8	50		 push	 eax
  001a9	8d 45 b0	 lea	 eax, DWORD PTR _pNode$136439[ebp]
  001ac	50		 push	 eax
  001ad	e8 00 00 00 00	 call	 ?find@NodeCatalogue@Moo@@SA?AV?$SmartPointer@VNode@Moo@@@@PBD@Z ; Moo::NodeCatalogue::find
  001b2	83 c4 08	 add	 esp, 8
  001b5	c6 45 fc 0a	 mov	 BYTE PTR __$EHRec$[ebp+8], 10 ; 0000000aH
; Line 88
  001b9	8d 4d b0	 lea	 ecx, DWORD PTR _pNode$136439[ebp]
  001bc	e8 00 00 00 00	 call	 ??B?$ConstSmartPointer@VNode@Moo@@@@QBEPQ0@PBVNode@Moo@@XZ ; ConstSmartPointer<Moo::Node>::operator Moo::Node const * ConstSmartPointer<Moo::Node>::*
  001c1	83 f8 ff	 cmp	 eax, -1
  001c4	0f 85 fe 00 00
	00		 jne	 $LN2@Animation@2
; Line 90
  001ca	68 00 01 00 00	 push	 256			; 00000100H
  001cf	e8 00 00 00 00	 call	 ??2Aligned@@SAPAXI@Z	; Aligned::operator new
  001d4	83 c4 04	 add	 esp, 4
  001d7	89 85 7c fe ff
	ff		 mov	 DWORD PTR $T144108[ebp], eax
  001dd	c6 45 fc 0b	 mov	 BYTE PTR __$EHRec$[ebp+8], 11 ; 0000000bH
  001e1	83 bd 7c fe ff
	ff 00		 cmp	 DWORD PTR $T144108[ebp], 0
  001e8	74 13		 je	 SHORT $LN9@Animation@2
  001ea	8b 8d 7c fe ff
	ff		 mov	 ecx, DWORD PTR $T144108[ebp]
  001f0	e8 00 00 00 00	 call	 ??0Node@Moo@@QAE@XZ	; Moo::Node::Node
  001f5	89 85 5c fe ff
	ff		 mov	 DWORD PTR tv209[ebp], eax
  001fb	eb 0a		 jmp	 SHORT $LN10@Animation@2
$LN9@Animation@2:
  001fd	c7 85 5c fe ff
	ff 00 00 00 00	 mov	 DWORD PTR tv209[ebp], 0
$LN10@Animation@2:
  00207	8b 85 5c fe ff
	ff		 mov	 eax, DWORD PTR tv209[ebp]
  0020d	89 85 70 fe ff
	ff		 mov	 DWORD PTR $T144107[ebp], eax
  00213	c6 45 fc 0a	 mov	 BYTE PTR __$EHRec$[ebp+8], 10 ; 0000000aH
  00217	6a 00		 push	 0
  00219	8b 8d 70 fe ff
	ff		 mov	 ecx, DWORD PTR $T144107[ebp]
  0021f	51		 push	 ecx
  00220	8d 8d 64 fe ff
	ff		 lea	 ecx, DWORD PTR $T144106[ebp]
  00226	e8 00 00 00 00	 call	 ??0?$SmartPointer@VNode@Moo@@@@QAE@PAVNode@Moo@@_N@Z ; SmartPointer<Moo::Node>::SmartPointer<Moo::Node>
  0022b	c6 45 fc 0c	 mov	 BYTE PTR __$EHRec$[ebp+8], 12 ; 0000000cH
  0022f	8d 95 64 fe ff
	ff		 lea	 edx, DWORD PTR $T144106[ebp]
  00235	52		 push	 edx
  00236	8d 4d b0	 lea	 ecx, DWORD PTR _pNode$136439[ebp]
  00239	e8 00 00 00 00	 call	 ??4?$SmartPointer@VNode@Moo@@@@QAEAAV0@ABV0@@Z ; SmartPointer<Moo::Node>::operator=
  0023e	c6 45 fc 0a	 mov	 BYTE PTR __$EHRec$[ebp+8], 10 ; 0000000aH
  00242	8d 8d 64 fe ff
	ff		 lea	 ecx, DWORD PTR $T144106[ebp]
  00248	e8 00 00 00 00	 call	 ??1?$SmartPointer@VNode@Moo@@@@QAE@XZ
; Line 91
  0024d	8d 4d bc	 lea	 ecx, DWORD PTR _pAC$136436[ebp]
  00250	e8 00 00 00 00	 call	 ??C?$SmartPointer@VAnimationChannel@Moo@@@@QBEPAVAnimationChannel@Moo@@XZ ; SmartPointer<Moo::AnimationChannel>::operator->
  00255	8b c8		 mov	 ecx, eax
  00257	e8 00 00 00 00	 call	 ?identifier@AnimationChannel@Moo@@QBEABV?$basic_string@DU?$char_traits@D@std@@V?$allocator@D@2@@std@@XZ ; Moo::AnimationChannel::identifier
  0025c	50		 push	 eax
  0025d	8d 4d b0	 lea	 ecx, DWORD PTR _pNode$136439[ebp]
  00260	e8 00 00 00 00	 call	 ??C?$SmartPointer@VNode@Moo@@@@QBEPAVNode@Moo@@XZ ; SmartPointer<Moo::Node>::operator->
  00265	8b c8		 mov	 ecx, eax
  00267	e8 00 00 00 00	 call	 ?identifier@Node@Moo@@QAEXABV?$basic_string@DU?$char_traits@D@std@@V?$allocator@D@2@@std@@@Z ; Moo::Node::identifier
; Line 92
  0026c	6a 00		 push	 0
  0026e	51		 push	 ecx
  0026f	8b cc		 mov	 ecx, esp
  00271	89 a5 94 fe ff
	ff		 mov	 DWORD PTR $T144112[ebp], esp
  00277	8d 45 b0	 lea	 eax, DWORD PTR _pNode$136439[ebp]
  0027a	50		 push	 eax
  0027b	e8 00 00 00 00	 call	 ??0?$SmartPointer@VNode@Moo@@@@QAE@ABV0@@Z ; SmartPointer<Moo::Node>::SmartPointer<Moo::Node>
  00280	89 85 5c fe ff
	ff		 mov	 DWORD PTR tv331[ebp], eax
  00286	e8 00 00 00 00	 call	 ?findOrAdd@NodeCatalogue@Moo@@SAPAVNode@2@V?$SmartPointer@VNode@Moo@@@@@Z ; Moo::NodeCatalogue::findOrAdd
  0028b	83 c4 04	 add	 esp, 4
  0028e	89 85 58 fe ff
	ff		 mov	 DWORD PTR tv332[ebp], eax
  00294	8b 8d 58 fe ff
	ff		 mov	 ecx, DWORD PTR tv332[ebp]
  0029a	51		 push	 ecx
  0029b	8d 8d 88 fe ff
	ff		 lea	 ecx, DWORD PTR $T144111[ebp]
  002a1	e8 00 00 00 00	 call	 ??0?$SmartPointer@VNode@Moo@@@@QAE@PAVNode@Moo@@_N@Z ; SmartPointer<Moo::Node>::SmartPointer<Moo::Node>
  002a6	c6 45 fc 0d	 mov	 BYTE PTR __$EHRec$[ebp+8], 13 ; 0000000dH
  002aa	8d 95 88 fe ff
	ff		 lea	 edx, DWORD PTR $T144111[ebp]
  002b0	52		 push	 edx
  002b1	8d 4d b0	 lea	 ecx, DWORD PTR _pNode$136439[ebp]
  002b4	e8 00 00 00 00	 call	 ??4?$SmartPointer@VNode@Moo@@@@QAEAAV0@ABV0@@Z ; SmartPointer<Moo::Node>::operator=
  002b9	c6 45 fc 0a	 mov	 BYTE PTR __$EHRec$[ebp+8], 10 ; 0000000aH
  002bd	8d 8d 88 fe ff
	ff		 lea	 ecx, DWORD PTR $T144111[ebp]
  002c3	e8 00 00 00 00	 call	 ??1?$SmartPointer@VNode@Moo@@@@QAE@XZ
$LN2@Animation@2:
; Line 95
  002c8	51		 push	 ecx
  002c9	8b cc		 mov	 ecx, esp
  002cb	89 a5 b0 fe ff
	ff		 mov	 DWORD PTR $T144114[ebp], esp
  002d1	8d 45 b0	 lea	 eax, DWORD PTR _pNode$136439[ebp]
  002d4	50		 push	 eax
  002d5	e8 00 00 00 00	 call	 ??0?$SmartPointer@VNode@Moo@@@@QAE@ABV0@@Z ; SmartPointer<Moo::Node>::SmartPointer<Moo::Node>
  002da	89 85 5c fe ff
	ff		 mov	 DWORD PTR tv222[ebp], eax
  002e0	8b 8d 5c fe ff
	ff		 mov	 ecx, DWORD PTR tv222[ebp]
  002e6	89 8d 58 fe ff
	ff		 mov	 DWORD PTR tv335[ebp], ecx
  002ec	c6 45 fc 0e	 mov	 BYTE PTR __$EHRec$[ebp+8], 14 ; 0000000eH
  002f0	51		 push	 ecx
  002f1	8b cc		 mov	 ecx, esp
  002f3	89 a5 bc fe ff
	ff		 mov	 DWORD PTR $T144115[ebp], esp
  002f9	8d 55 bc	 lea	 edx, DWORD PTR _pAC$136436[ebp]
  002fc	52		 push	 edx
  002fd	e8 00 00 00 00	 call	 ??0?$SmartPointer@VAnimationChannel@Moo@@@@QAE@ABV0@@Z ; SmartPointer<Moo::AnimationChannel>::SmartPointer<Moo::AnimationChannel>
  00302	89 85 54 fe ff
	ff		 mov	 DWORD PTR tv339[ebp], eax
  00308	c6 45 fc 0a	 mov	 BYTE PTR __$EHRec$[ebp+8], 10 ; 0000000aH
  0030c	8d 8d a0 fe ff
	ff		 lea	 ecx, DWORD PTR $T144113[ebp]
  00312	e8 00 00 00 00	 call	 ??0ChannelBinder@Moo@@QAE@V?$SmartPointer@VAnimationChannel@Moo@@@@V?$SmartPointer@VNode@Moo@@@@@Z ; Moo::ChannelBinder::ChannelBinder
  00317	89 85 50 fe ff
	ff		 mov	 DWORD PTR tv336[ebp], eax
  0031d	8b 85 50 fe ff
	ff		 mov	 eax, DWORD PTR tv336[ebp]
  00323	89 85 4c fe ff
	ff		 mov	 DWORD PTR tv341[ebp], eax
  00329	c6 45 fc 0f	 mov	 BYTE PTR __$EHRec$[ebp+8], 15 ; 0000000fH
  0032d	8b 8d 4c fe ff
	ff		 mov	 ecx, DWORD PTR tv341[ebp]
  00333	51		 push	 ecx
  00334	8b 4d ec	 mov	 ecx, DWORD PTR _this$[ebp]
  00337	83 c1 0c	 add	 ecx, 12			; 0000000cH
  0033a	e8 00 00 00 00	 call	 ?push_back@?$vector@VChannelBinder@Moo@@V?$allocator@VChannelBinder@Moo@@@std@@@std@@QAEXABVChannelBinder@Moo@@@Z ; std::vector<Moo::ChannelBinder,std::allocator<Moo::ChannelBinder> >::push_back
  0033f	c6 45 fc 0a	 mov	 BYTE PTR __$EHRec$[ebp+8], 10 ; 0000000aH
  00343	8d 8d a0 fe ff
	ff		 lea	 ecx, DWORD PTR $T144113[ebp]
  00349	e8 00 00 00 00	 call	 ??1ChannelBinder@Moo@@QAE@XZ ; Moo::ChannelBinder::~ChannelBinder
; Line 96
  0034e	c6 45 fc 09	 mov	 BYTE PTR __$EHRec$[ebp+8], 9
  00352	8d 4d b0	 lea	 ecx, DWORD PTR _pNode$136439[ebp]
  00355	e8 00 00 00 00	 call	 ??1?$SmartPointer@VNode@Moo@@@@QAE@XZ
; Line 97
  0035a	e9 86 00 00 00	 jmp	 $LN1@Animation@2
$LN3@Animation@2:
; Line 100
  0035f	51		 push	 ecx
  00360	8b cc		 mov	 ecx, esp
  00362	89 a5 d8 fe ff
	ff		 mov	 DWORD PTR $T144117[ebp], esp
  00368	6a 00		 push	 0
  0036a	6a 00		 push	 0
  0036c	e8 00 00 00 00	 call	 ??0?$SmartPointer@VNode@Moo@@@@QAE@PAVNode@Moo@@_N@Z ; SmartPointer<Moo::Node>::SmartPointer<Moo::Node>
  00371	89 85 5c fe ff
	ff		 mov	 DWORD PTR tv173[ebp], eax
  00377	8b 85 5c fe ff
	ff		 mov	 eax, DWORD PTR tv173[ebp]
  0037d	89 85 58 fe ff
	ff		 mov	 DWORD PTR tv343[ebp], eax
  00383	c6 45 fc 10	 mov	 BYTE PTR __$EHRec$[ebp+8], 16 ; 00000010H
  00387	51		 push	 ecx
  00388	8b cc		 mov	 ecx, esp
  0038a	89 a5 e4 fe ff
	ff		 mov	 DWORD PTR $T144118[ebp], esp
  00390	8d 55 bc	 lea	 edx, DWORD PTR _pAC$136436[ebp]
  00393	52		 push	 edx
  00394	e8 00 00 00 00	 call	 ??0?$SmartPointer@VAnimationChannel@Moo@@@@QAE@ABV0@@Z ; SmartPointer<Moo::AnimationChannel>::SmartPointer<Moo::AnimationChannel>
  00399	89 85 54 fe ff
	ff		 mov	 DWORD PTR tv347[ebp], eax
  0039f	c6 45 fc 09	 mov	 BYTE PTR __$EHRec$[ebp+8], 9
  003a3	8d 8d c8 fe ff
	ff		 lea	 ecx, DWORD PTR $T144116[ebp]
  003a9	e8 00 00 00 00	 call	 ??0ChannelBinder@Moo@@QAE@V?$SmartPointer@VAnimationChannel@Moo@@@@V?$SmartPointer@VNode@Moo@@@@@Z ; Moo::ChannelBinder::ChannelBinder
  003ae	89 85 50 fe ff
	ff		 mov	 DWORD PTR tv344[ebp], eax
  003b4	8b 85 50 fe ff
	ff		 mov	 eax, DWORD PTR tv344[ebp]
  003ba	89 85 4c fe ff
	ff		 mov	 DWORD PTR tv349[ebp], eax
  003c0	c6 45 fc 11	 mov	 BYTE PTR __$EHRec$[ebp+8], 17 ; 00000011H
  003c4	8b 8d 4c fe ff
	ff		 mov	 ecx, DWORD PTR tv349[ebp]
  003ca	51		 push	 ecx
  003cb	8b 4d ec	 mov	 ecx, DWORD PTR _this$[ebp]
  003ce	83 c1 0c	 add	 ecx, 12			; 0000000cH
  003d1	e8 00 00 00 00	 call	 ?push_back@?$vector@VChannelBinder@Moo@@V?$allocator@VChannelBinder@Moo@@@std@@@std@@QAEXABVChannelBinder@Moo@@@Z ; std::vector<Moo::ChannelBinder,std::allocator<Moo::ChannelBinder> >::push_back
  003d6	c6 45 fc 09	 mov	 BYTE PTR __$EHRec$[ebp+8], 9
  003da	8d 8d c8 fe ff
	ff		 lea	 ecx, DWORD PTR $T144116[ebp]
  003e0	e8 00 00 00 00	 call	 ??1ChannelBinder@Moo@@QAE@XZ ; Moo::ChannelBinder::~ChannelBinder
$LN1@Animation@2:
; Line 102
  003e5	c6 45 fc 08	 mov	 BYTE PTR __$EHRec$[ebp+8], 8
  003e9	8d 4d bc	 lea	 ecx, DWORD PTR _pAC$136436[ebp]
  003ec	e8 00 00 00 00	 call	 ??1?$SmartPointer@VAnimationChannel@Moo@@@@QAE@XZ
  003f1	e9 2a fd ff ff	 jmp	 $LN5@Animation@2
$LN4@Animation@2:
; Line 103
  003f6	c6 45 fc 07	 mov	 BYTE PTR __$EHRec$[ebp+8], 7
  003fa	8d 4d d4	 lea	 ecx, DWORD PTR _nullMooNodePointer$[ebp]
  003fd	e8 00 00 00 00	 call	 ??1?$SmartPointer@VNode@Moo@@@@QAE@XZ
  00402	c6 45 fc 06	 mov	 BYTE PTR __$EHRec$[ebp+8], 6
  00406	8d 4d e3	 lea	 ecx, DWORD PTR __BW_GUARD$[ebp]
  00409	e8 00 00 00 00	 call	 ??1ScopedStackTrack@@QAE@XZ ; ScopedStackTrack::~ScopedStackTrack
  0040e	c7 45 fc ff ff
	ff ff		 mov	 DWORD PTR __$EHRec$[ebp+8], -1
  00415	8b 45 ec	 mov	 eax, DWORD PTR _this$[ebp]
  00418	52		 push	 edx
  00419	8b cd		 mov	 ecx, ebp
  0041b	50		 push	 eax
  0041c	8d 15 00 00 00
	00		 lea	 edx, DWORD PTR $LN38@Animation@2
  00422	e8 00 00 00 00	 call	 @_RTC_CheckStackVars@8
  00427	58		 pop	 eax
  00428	5a		 pop	 edx
  00429	8b 4d f4	 mov	 ecx, DWORD PTR __$EHRec$[ebp]
  0042c	64 89 0d 00 00
	00 00		 mov	 DWORD PTR fs:0, ecx
  00433	59		 pop	 ecx
  00434	5f		 pop	 edi
  00435	5e		 pop	 esi
  00436	5b		 pop	 ebx
  00437	81 c4 b4 01 00
	00		 add	 esp, 436		; 000001b4H
  0043d	3b ec		 cmp	 ebp, esp
  0043f	e8 00 00 00 00	 call	 __RTC_CheckEsp
  00444	8b e5		 mov	 esp, ebp
  00446	5d		 pop	 ebp
  00447	c2 04 00	 ret	 4
  0044a	8b ff		 npad	 2
$LN38@Animation@2:
  0044c	04 00 00 00	 DD	 4
  00450	00 00 00 00	 DD	 $LN37@Animation@2
$LN37@Animation@2:
  00454	e3 ff ff ff	 DD	 -29			; ffffffe3H
  00458	01 00 00 00	 DD	 1
  0045c	00 00 00 00	 DD	 $LN32@Animation@2
  00460	d4 ff ff ff	 DD	 -44			; ffffffd4H
  00464	04 00 00 00	 DD	 4
  00468	00 00 00 00	 DD	 $LN33@Animation@2
  0046c	bc ff ff ff	 DD	 -68			; ffffffbcH
  00470	04 00 00 00	 DD	 4
  00474	00 00 00 00	 DD	 $LN34@Animation@2
  00478	b0 ff ff ff	 DD	 -80			; ffffffb0H
  0047c	04 00 00 00	 DD	 4
  00480	00 00 00 00	 DD	 $LN35@Animation@2
$LN35@Animation@2:
  00484	70		 DB	 112			; 00000070H
  00485	4e		 DB	 78			; 0000004eH
  00486	6f		 DB	 111			; 0000006fH
  00487	64		 DB	 100			; 00000064H
  00488	65		 DB	 101			; 00000065H
  00489	00		 DB	 0
$LN34@Animation@2:
  0048a	70		 DB	 112			; 00000070H
  0048b	41		 DB	 65			; 00000041H
  0048c	43		 DB	 67			; 00000043H
  0048d	00		 DB	 0
$LN33@Animation@2:
  0048e	6e		 DB	 110			; 0000006eH
  0048f	75		 DB	 117			; 00000075H
  00490	6c		 DB	 108			; 0000006cH
  00491	6c		 DB	 108			; 0000006cH
  00492	4d		 DB	 77			; 0000004dH
  00493	6f		 DB	 111			; 0000006fH
  00494	6f		 DB	 111			; 0000006fH
  00495	4e		 DB	 78			; 0000004eH
  00496	6f		 DB	 111			; 0000006fH
  00497	64		 DB	 100			; 00000064H
  00498	65		 DB	 101			; 00000065H
  00499	50		 DB	 80			; 00000050H
  0049a	6f		 DB	 111			; 0000006fH
  0049b	69		 DB	 105			; 00000069H
  0049c	6e		 DB	 110			; 0000006eH
  0049d	74		 DB	 116			; 00000074H
  0049e	65		 DB	 101			; 00000065H
  0049f	72		 DB	 114			; 00000072H
  004a0	00		 DB	 0
$LN32@Animation@2:
  004a1	5f		 DB	 95			; 0000005fH
  004a2	42		 DB	 66			; 00000042H
  004a3	57		 DB	 87			; 00000057H
  004a4	5f		 DB	 95			; 0000005fH
  004a5	47		 DB	 71			; 00000047H
  004a6	55		 DB	 85			; 00000055H
  004a7	41		 DB	 65			; 00000041H
  004a8	52		 DB	 82			; 00000052H
  004a9	44		 DB	 68			; 00000044H
  004aa	00		 DB	 0
_TEXT	ENDS
;	COMDAT text$x
text$x	SEGMENT
__unwindfunclet$??0Animation@Moo@@QAE@PAV01@@Z$0:
  00000	8b 4d ec	 mov	 ecx, DWORD PTR _this$[ebp]
  00003	e9 00 00 00 00	 jmp	 ??1ReferenceCount@@UAE@XZ ; ReferenceCount::~ReferenceCount
__unwindfunclet$??0Animation@Moo@@QAE@PAV01@@Z$1:
  00008	8b 4d ec	 mov	 ecx, DWORD PTR _this$[ebp]
  0000b	83 c1 0c	 add	 ecx, 12			; 0000000cH
  0000e	e9 00 00 00 00	 jmp	 ??1?$vector@VChannelBinder@Moo@@V?$allocator@VChannelBinder@Moo@@@std@@@std@@QAE@XZ ; std::vector<Moo::ChannelBinder,std::allocator<Moo::ChannelBinder> >::~vector<Moo::ChannelBinder,std::allocator<Moo::ChannelBinder> >
__unwindfunclet$??0Animation@Moo@@QAE@PAV01@@Z$2:
  00013	8b 4d ec	 mov	 ecx, DWORD PTR _this$[ebp]
  00016	83 c1 20	 add	 ecx, 32			; 00000020H
  00019	8b f4		 mov	 esi, esp
  0001b	ff 15 00 00 00
	00		 call	 DWORD PTR __imp_??1?$basic_string@DU?$char_traits@D@std@@V?$allocator@D@2@@std@@QAE@XZ
  00021	3b f4		 cmp	 esi, esp
  00023	e9 00 00 00 00	 jmp	 __RTC_CheckEsp
__unwindfunclet$??0Animation@Moo@@QAE@PAV01@@Z$3:
  00028	8b 4d ec	 mov	 ecx, DWORD PTR _this$[ebp]
  0002b	83 c1 40	 add	 ecx, 64			; 00000040H
  0002e	8b f4		 mov	 esi, esp
  00030	ff 15 00 00 00
	00		 call	 DWORD PTR __imp_??1?$basic_string@DU?$char_traits@D@std@@V?$allocator@D@2@@std@@QAE@XZ
  00036	3b f4		 cmp	 esi, esp
  00038	e9 00 00 00 00	 jmp	 __RTC_CheckEsp
__unwindfunclet$??0Animation@Moo@@QAE@PAV01@@Z$4:
  0003d	8b 4d ec	 mov	 ecx, DWORD PTR _this$[ebp]
  00040	83 c1 64	 add	 ecx, 100		; 00000064H
  00043	e9 00 00 00 00	 jmp	 ??1?$SmartPointer@VStreamedAnimation@Moo@@@@QAE@XZ
__unwindfunclet$??0Animation@Moo@@QAE@PAV01@@Z$5:
  00048	8b 4d ec	 mov	 ecx, DWORD PTR _this$[ebp]
  0004b	83 c1 68	 add	 ecx, 104		; 00000068H
  0004e	e9 00 00 00 00	 jmp	 ??1?$SmartPointer@VAnimation@Moo@@@@QAE@XZ
__unwindfunclet$??0Animation@Moo@@QAE@PAV01@@Z$6:
  00053	8b 4d ec	 mov	 ecx, DWORD PTR _this$[ebp]
  00056	83 c1 6c	 add	 ecx, 108		; 0000006cH
  00059	e9 00 00 00 00	 jmp	 ??1?$vector@V?$SmartPointer@VAnimationChannel@Moo@@@@V?$allocator@V?$SmartPointer@VAnimationChannel@Moo@@@@@std@@@std@@QAE@XZ ; std::vector<SmartPointer<Moo::AnimationChannel>,std::allocator<SmartPointer<Moo::AnimationChannel> > >::~vector<SmartPointer<Moo::AnimationChannel>,std::allocator<SmartPointer<Moo::AnimationChannel> > >
__unwindfunclet$??0Animation@Moo@@QAE@PAV01@@Z$7:
  0005e	8d 4d e3	 lea	 ecx, DWORD PTR __BW_GUARD$[ebp]
  00061	e9 00 00 00 00	 jmp	 ??1ScopedStackTrack@@QAE@XZ ; ScopedStackTrack::~ScopedStackTrack
__unwindfunclet$??0Animation@Moo@@QAE@PAV01@@Z$8:
  00066	8d 4d d4	 lea	 ecx, DWORD PTR _nullMooNodePointer$[ebp]
  00069	e9 00 00 00 00	 jmp	 ??1?$SmartPointer@VNode@Moo@@@@QAE@XZ
__unwindfunclet$??0Animation@Moo@@QAE@PAV01@@Z$9:
  0006e	8d 4d bc	 lea	 ecx, DWORD PTR _pAC$136436[ebp]
  00071	e9 00 00 00 00	 jmp	 ??1?$SmartPointer@VAnimationChannel@Moo@@@@QAE@XZ
__unwindfunclet$??0Animation@Moo@@QAE@PAV01@@Z$10:
  00076	8d 4d b0	 lea	 ecx, DWORD PTR _pNode$136439[ebp]
  00079	e9 00 00 00 00	 jmp	 ??1?$SmartPointer@VNode@Moo@@@@QAE@XZ
__unwindfunclet$??0Animation@Moo@@QAE@PAV01@@Z$11:
  0007e	8b 85 7c fe ff
	ff		 mov	 eax, DWORD PTR $T144108[ebp]
  00084	50		 push	 eax
  00085	e8 00 00 00 00	 call	 ??3Aligned@@SAXPAX@Z	; Aligned::operator delete
  0008a	59		 pop	 ecx
  0008b	c3		 ret	 0
__unwindfunclet$??0Animation@Moo@@QAE@PAV01@@Z$12:
  0008c	8d 8d 64 fe ff
	ff		 lea	 ecx, DWORD PTR $T144106[ebp]
  00092	e9 00 00 00 00	 jmp	 ??1?$SmartPointer@VNode@Moo@@@@QAE@XZ
__unwindfunclet$??0Animation@Moo@@QAE@PAV01@@Z$14:
  00097	8d 8d 88 fe ff
	ff		 lea	 ecx, DWORD PTR $T144111[ebp]
  0009d	e9 00 00 00 00	 jmp	 ??1?$SmartPointer@VNode@Moo@@@@QAE@XZ
__unwindfunclet$??0Animation@Moo@@QAE@PAV01@@Z$15:
  000a2	8b 8d b0 fe ff
	ff		 mov	 ecx, DWORD PTR $T144114[ebp]
  000a8	e9 00 00 00 00	 jmp	 ??1?$SmartPointer@VNode@Moo@@@@QAE@XZ
__unwindfunclet$??0Animation@Moo@@QAE@PAV01@@Z$17:
  000ad	8d 8d a0 fe ff
	ff		 lea	 ecx, DWORD PTR $T144113[ebp]
  000b3	e9 00 00 00 00	 jmp	 ??1ChannelBinder@Moo@@QAE@XZ ; Moo::ChannelBinder::~ChannelBinder
__unwindfunclet$??0Animation@Moo@@QAE@PAV01@@Z$18:
  000b8	8b 8d d8 fe ff
	ff		 mov	 ecx, DWORD PTR $T144117[ebp]
  000be	e9 00 00 00 00	 jmp	 ??1?$SmartPointer@VNode@Moo@@@@QAE@XZ
__unwindfunclet$??0Animation@Moo@@QAE@PAV01@@Z$20:
  000c3	8d 8d c8 fe ff
	ff		 lea	 ecx, DWORD PTR $T144116[ebp]
  000c9	e9 00 00 00 00	 jmp	 ??1ChannelBinder@Moo@@QAE@XZ ; Moo::ChannelBinder::~ChannelBinder
__ehhandler$??0Animation@Moo@@QAE@PAV01@@Z:
  000ce	8b 54 24 08	 mov	 edx, DWORD PTR [esp+8]
  000d2	8d 42 0c	 lea	 eax, DWORD PTR [edx+12]
  000d5	8b 8a 48 fe ff
	ff		 mov	 ecx, DWORD PTR [edx-440]
  000db	33 c8		 xor	 ecx, eax
  000dd	e8 00 00 00 00	 call	 @__security_check_cookie@4
  000e2	b8 00 00 00 00	 mov	 eax, OFFSET __ehfuncinfo$??0Animation@Moo@@QAE@PAV01@@Z
  000e7	e9 00 00 00 00	 jmp	 ___CxxFrameHandler3
text$x	ENDS
??0Animation@Moo@@QAE@PAV01@@Z ENDP			; Moo::Animation::Animation
PUBLIC	??0?$vector@V?$SmartPointer@VAnimationChannel@Moo@@@@V?$allocator@V?$SmartPointer@VAnimationChannel@Moo@@@@@std@@@std@@QAE@XZ ; std::vector<SmartPointer<Moo::AnimationChannel>,std::allocator<SmartPointer<Moo::AnimationChannel> > >::vector<SmartPointer<Moo::AnimationChannel>,std::allocator<SmartPointer<Moo::AnimationChannel> > >
PUBLIC	??0?$SmartPointer@VStreamedAnimation@Moo@@@@QAE@PAVStreamedAnimation@Moo@@_N@Z ; SmartPointer<Moo::StreamedAnimation>::SmartPointer<Moo::StreamedAnimation>
PUBLIC	??0_Has_debug_it@?$basic_string@DU?$char_traits@D@std@@V?$allocator@D@2@@std@@QAE@_N@Z ; std::basic_string<char,std::char_traits<char>,std::allocator<char> >::_Has_debug_it::_Has_debug_it
PUBLIC	__real@00000000
PUBLIC	??0Animation@Moo@@QAE@XZ			; Moo::Animation::Animation
EXTRN	__imp_??0?$basic_string@DU?$char_traits@D@std@@V?$allocator@D@2@@std@@QAE@U_Has_debug_it@01@@Z:PROC
;	COMDAT __real@00000000
CONST	SEGMENT
__real@00000000 DD 000000000r			; 0
CONST	ENDS
;	COMDAT xdata$x
xdata$x	SEGMENT
__ehfuncinfo$??0Animation@Moo@@QAE@XZ DD 019930522H
	DD	06H
	DD	FLAT:__unwindtable$??0Animation@Moo@@QAE@XZ
	DD	2 DUP(00H)
	DD	2 DUP(00H)
	DD	00H
	DD	01H
__unwindtable$??0Animation@Moo@@QAE@XZ DD 0ffffffffH
	DD	FLAT:__unwindfunclet$??0Animation@Moo@@QAE@XZ$0
	DD	00H
	DD	FLAT:__unwindfunclet$??0Animation@Moo@@QAE@XZ$1
	DD	01H
	DD	FLAT:__unwindfunclet$??0Animation@Moo@@QAE@XZ$2
	DD	02H
	DD	FLAT:__unwindfunclet$??0Animation@Moo@@QAE@XZ$3
	DD	03H
	DD	FLAT:__unwindfunclet$??0Animation@Moo@@QAE@XZ$4
	DD	04H
	DD	FLAT:__unwindfunclet$??0Animation@Moo@@QAE@XZ$5
; Function compile flags: /Odtp /RTCsu /ZI
xdata$x	ENDS
;	COMDAT ??0Animation@Moo@@QAE@XZ
_TEXT	SEGMENT
$T144154 = -233						; size = 1
$T144155 = -221						; size = 1
_this$ = -20						; size = 4
__$EHRec$ = -12						; size = 12
??0Animation@Moo@@QAE@XZ PROC				; Moo::Animation::Animation, COMDAT
; _this$ = ecx
; Line 111
  00000	55		 push	 ebp
  00001	8b ec		 mov	 ebp, esp
  00003	6a ff		 push	 -1
  00005	68 00 00 00 00	 push	 __ehhandler$??0Animation@Moo@@QAE@XZ
  0000a	64 a1 00 00 00
	00		 mov	 eax, DWORD PTR fs:0
  00010	50		 push	 eax
  00011	81 ec e4 00 00
	00		 sub	 esp, 228		; 000000e4H
  00017	53		 push	 ebx
  00018	56		 push	 esi
  00019	57		 push	 edi
  0001a	51		 push	 ecx
  0001b	8d bd 10 ff ff
	ff		 lea	 edi, DWORD PTR [ebp-240]
  00021	b9 39 00 00 00	 mov	 ecx, 57			; 00000039H
  00026	b8 cc cc cc cc	 mov	 eax, -858993460		; ccccccccH
  0002b	f3 ab		 rep stosd
  0002d	59		 pop	 ecx
  0002e	a1 00 00 00 00	 mov	 eax, DWORD PTR ___security_cookie
  00033	33 c5		 xor	 eax, ebp
  00035	50		 push	 eax
  00036	8d 45 f4	 lea	 eax, DWORD PTR __$EHRec$[ebp]
  00039	64 a3 00 00 00
	00		 mov	 DWORD PTR fs:0, eax
  0003f	89 4d ec	 mov	 DWORD PTR _this$[ebp], ecx
  00042	8b 4d ec	 mov	 ecx, DWORD PTR _this$[ebp]
  00045	e8 00 00 00 00	 call	 ??0ReferenceCount@@QAE@XZ ; ReferenceCount::ReferenceCount
  0004a	c7 45 fc 00 00
	00 00		 mov	 DWORD PTR __$EHRec$[ebp+8], 0
  00051	8b 45 ec	 mov	 eax, DWORD PTR _this$[ebp]
  00054	c7 00 00 00 00
	00		 mov	 DWORD PTR [eax], OFFSET ??_7Animation@Moo@@6B@
  0005a	8b 45 ec	 mov	 eax, DWORD PTR _this$[ebp]
  0005d	f3 0f 10 05 00
	00 00 00	 movss	 xmm0, DWORD PTR __real@00000000
  00065	f3 0f 11 40 08	 movss	 DWORD PTR [eax+8], xmm0
  0006a	8b 4d ec	 mov	 ecx, DWORD PTR _this$[ebp]
  0006d	83 c1 0c	 add	 ecx, 12			; 0000000cH
  00070	e8 00 00 00 00	 call	 ??0?$vector@VChannelBinder@Moo@@V?$allocator@VChannelBinder@Moo@@@std@@@std@@QAE@XZ ; std::vector<Moo::ChannelBinder,std::allocator<Moo::ChannelBinder> >::vector<Moo::ChannelBinder,std::allocator<Moo::ChannelBinder> >
  00075	c6 45 fc 01	 mov	 BYTE PTR __$EHRec$[ebp+8], 1
  00079	6a 01		 push	 1
  0007b	8d 8d 17 ff ff
	ff		 lea	 ecx, DWORD PTR $T144154[ebp]
  00081	e8 00 00 00 00	 call	 ??0_Has_debug_it@?$basic_string@DU?$char_traits@D@std@@V?$allocator@D@2@@std@@QAE@_N@Z ; std::basic_string<char,std::char_traits<char>,std::allocator<char> >::_Has_debug_it::_Has_debug_it
  00086	8b f4		 mov	 esi, esp
  00088	8a 00		 mov	 al, BYTE PTR [eax]
  0008a	50		 push	 eax
  0008b	8b 4d ec	 mov	 ecx, DWORD PTR _this$[ebp]
  0008e	83 c1 20	 add	 ecx, 32			; 00000020H
  00091	ff 15 00 00 00
	00		 call	 DWORD PTR __imp_??0?$basic_string@DU?$char_traits@D@std@@V?$allocator@D@2@@std@@QAE@U_Has_debug_it@01@@Z
  00097	3b f4		 cmp	 esi, esp
  00099	e8 00 00 00 00	 call	 __RTC_CheckEsp
  0009e	c6 45 fc 02	 mov	 BYTE PTR __$EHRec$[ebp+8], 2
  000a2	6a 01		 push	 1
  000a4	8d 8d 23 ff ff
	ff		 lea	 ecx, DWORD PTR $T144155[ebp]
  000aa	e8 00 00 00 00	 call	 ??0_Has_debug_it@?$basic_string@DU?$char_traits@D@std@@V?$allocator@D@2@@std@@QAE@_N@Z ; std::basic_string<char,std::char_traits<char>,std::allocator<char> >::_Has_debug_it::_Has_debug_it
  000af	8b f4		 mov	 esi, esp
  000b1	8a 00		 mov	 al, BYTE PTR [eax]
  000b3	50		 push	 eax
  000b4	8b 4d ec	 mov	 ecx, DWORD PTR _this$[ebp]
  000b7	83 c1 40	 add	 ecx, 64			; 00000040H
  000ba	ff 15 00 00 00
	00		 call	 DWORD PTR __imp_??0?$basic_string@DU?$char_traits@D@std@@V?$allocator@D@2@@std@@QAE@U_Has_debug_it@01@@Z
  000c0	3b f4		 cmp	 esi, esp
  000c2	e8 00 00 00 00	 call	 __RTC_CheckEsp
  000c7	c6 45 fc 03	 mov	 BYTE PTR __$EHRec$[ebp+8], 3
  000cb	8b 45 ec	 mov	 eax, DWORD PTR _this$[ebp]
  000ce	c7 40 60 00 00
	00 00		 mov	 DWORD PTR [eax+96], 0
  000d5	6a 00		 push	 0
  000d7	6a 00		 push	 0
  000d9	8b 4d ec	 mov	 ecx, DWORD PTR _this$[ebp]
  000dc	83 c1 64	 add	 ecx, 100		; 00000064H
  000df	e8 00 00 00 00	 call	 ??0?$SmartPointer@VStreamedAnimation@Moo@@@@QAE@PAVStreamedAnimation@Moo@@_N@Z ; SmartPointer<Moo::StreamedAnimation>::SmartPointer<Moo::StreamedAnimation>
  000e4	c6 45 fc 04	 mov	 BYTE PTR __$EHRec$[ebp+8], 4
  000e8	6a 00		 push	 0
  000ea	6a 00		 push	 0
  000ec	8b 4d ec	 mov	 ecx, DWORD PTR _this$[ebp]
  000ef	83 c1 68	 add	 ecx, 104		; 00000068H
  000f2	e8 00 00 00 00	 call	 ??0?$SmartPointer@VAnimation@Moo@@@@QAE@PAVAnimation@Moo@@_N@Z ; SmartPointer<Moo::Animation>::SmartPointer<Moo::Animation>
  000f7	c6 45 fc 05	 mov	 BYTE PTR __$EHRec$[ebp+8], 5
  000fb	8b 4d ec	 mov	 ecx, DWORD PTR _this$[ebp]
  000fe	83 c1 6c	 add	 ecx, 108		; 0000006cH
  00101	e8 00 00 00 00	 call	 ??0?$vector@V?$SmartPointer@VAnimationChannel@Moo@@@@V?$allocator@V?$SmartPointer@VAnimationChannel@Moo@@@@@std@@@std@@QAE@XZ ; std::vector<SmartPointer<Moo::AnimationChannel>,std::allocator<SmartPointer<Moo::AnimationChannel> > >::vector<SmartPointer<Moo::AnimationChannel>,std::allocator<SmartPointer<Moo::AnimationChannel> > >
; Line 112
  00106	c7 45 fc ff ff
	ff ff		 mov	 DWORD PTR __$EHRec$[ebp+8], -1
  0010d	8b 45 ec	 mov	 eax, DWORD PTR _this$[ebp]
  00110	8b 4d f4	 mov	 ecx, DWORD PTR __$EHRec$[ebp]
  00113	64 89 0d 00 00
	00 00		 mov	 DWORD PTR fs:0, ecx
  0011a	59		 pop	 ecx
  0011b	5f		 pop	 edi
  0011c	5e		 pop	 esi
  0011d	5b		 pop	 ebx
  0011e	81 c4 f0 00 00
	00		 add	 esp, 240		; 000000f0H
  00124	3b ec		 cmp	 ebp, esp
  00126	e8 00 00 00 00	 call	 __RTC_CheckEsp
  0012b	8b e5		 mov	 esp, ebp
  0012d	5d		 pop	 ebp
  0012e	c3		 ret	 0
_TEXT	ENDS
;	COMDAT text$x
text$x	SEGMENT
__unwindfunclet$??0Animation@Moo@@QAE@XZ$0:
  00000	8b 4d ec	 mov	 ecx, DWORD PTR _this$[ebp]
  00003	e9 00 00 00 00	 jmp	 ??1ReferenceCount@@UAE@XZ ; ReferenceCount::~ReferenceCount
__unwindfunclet$??0Animation@Moo@@QAE@XZ$1:
  00008	8b 4d ec	 mov	 ecx, DWORD PTR _this$[ebp]
  0000b	83 c1 0c	 add	 ecx, 12			; 0000000cH
  0000e	e9 00 00 00 00	 jmp	 ??1?$vector@VChannelBinder@Moo@@V?$allocator@VChannelBinder@Moo@@@std@@@std@@QAE@XZ ; std::vector<Moo::ChannelBinder,std::allocator<Moo::ChannelBinder> >::~vector<Moo::ChannelBinder,std::allocator<Moo::ChannelBinder> >
__unwindfunclet$??0Animation@Moo@@QAE@XZ$2:
  00013	8b 4d ec	 mov	 ecx, DWORD PTR _this$[ebp]
  00016	83 c1 20	 add	 ecx, 32			; 00000020H
  00019	8b f4		 mov	 esi, esp
  0001b	ff 15 00 00 00
	00		 call	 DWORD PTR __imp_??1?$basic_string@DU?$char_traits@D@std@@V?$allocator@D@2@@std@@QAE@XZ
  00021	3b f4		 cmp	 esi, esp
  00023	e9 00 00 00 00	 jmp	 __RTC_CheckEsp
__unwindfunclet$??0Animation@Moo@@QAE@XZ$3:
  00028	8b 4d ec	 mov	 ecx, DWORD PTR _this$[ebp]
  0002b	83 c1 40	 add	 ecx, 64			; 00000040H
  0002e	8b f4		 mov	 esi, esp
  00030	ff 15 00 00 00
	00		 call	 DWORD PTR __imp_??1?$basic_string@DU?$char_traits@D@std@@V?$allocator@D@2@@std@@QAE@XZ
  00036	3b f4		 cmp	 esi, esp
  00038	e9 00 00 00 00	 jmp	 __RTC_CheckEsp
__unwindfunclet$??0Animation@Moo@@QAE@XZ$4:
  0003d	8b 4d ec	 mov	 ecx, DWORD PTR _this$[ebp]
  00040	83 c1 64	 add	 ecx, 100		; 00000064H
  00043	e9 00 00 00 00	 jmp	 ??1?$SmartPointer@VStreamedAnimation@Moo@@@@QAE@XZ
__unwindfunclet$??0Animation@Moo@@QAE@XZ$5:
  00048	8b 4d ec	 mov	 ecx, DWORD PTR _this$[ebp]
  0004b	83 c1 68	 add	 ecx, 104		; 00000068H
  0004e	e9 00 00 00 00	 jmp	 ??1?$SmartPointer@VAnimation@Moo@@@@QAE@XZ
__ehhandler$??0Animation@Moo@@QAE@XZ:
  00053	8b 54 24 08	 mov	 edx, DWORD PTR [esp+8]
  00057	8d 42 0c	 lea	 eax, DWORD PTR [edx+12]
  0005a	8b 8a 0c ff ff
	ff		 mov	 ecx, DWORD PTR [edx-244]
  00060	33 c8		 xor	 ecx, eax
  00062	e8 00 00 00 00	 call	 @__security_check_cookie@4
  00067	b8 00 00 00 00	 mov	 eax, OFFSET __ehfuncinfo$??0Animation@Moo@@QAE@XZ
  0006c	e9 00 00 00 00	 jmp	 ___CxxFrameHandler3
text$x	ENDS
??0Animation@Moo@@QAE@XZ ENDP				; Moo::Animation::Animation
PUBLIC	?instance@?$Singleton@VAnimationManager@Moo@@@@SAAAVAnimationManager@Moo@@XZ ; Singleton<Moo::AnimationManager>::instance
PUBLIC	??B?$ConstSmartPointer@VAnimation@Moo@@@@QBEPQ0@PBVAnimation@Moo@@XZ ; ConstSmartPointer<Moo::Animation>::operator Moo::Animation const * ConstSmartPointer<Moo::Animation>::*
PUBLIC	??_C@_0BL@BDMGOIDG@Moo?3?3Animation?3?3?$HOAnimation?$AA@ ; `string'
PUBLIC	?__LINE__Var@?1???1Animation@Moo@@EAE@XZ@4JA	; `Moo::Animation::~Animation'::`2'::__LINE__Var
EXTRN	?del@AnimationManager@Moo@@AAEXPAVAnimation@2@@Z:PROC ; Moo::AnimationManager::del
;	COMDAT ??_C@_0BL@BDMGOIDG@Moo?3?3Animation?3?3?$HOAnimation?$AA@
CONST	SEGMENT
??_C@_0BL@BDMGOIDG@Moo?3?3Animation?3?3?$HOAnimation?$AA@ DB 'Moo::Animat'
	DB	'ion::~Animation', 00H			; `string'
CONST	ENDS
;	COMDAT ?__LINE__Var@?1???1Animation@Moo@@EAE@XZ@4JA
_DATA	SEGMENT
?__LINE__Var@?1???1Animation@Moo@@EAE@XZ@4JA DD 076H	; `Moo::Animation::~Animation'::`2'::__LINE__Var
_DATA	ENDS
;	COMDAT xdata$x
xdata$x	SEGMENT
__ehfuncinfo$??1Animation@Moo@@EAE@XZ DD 019930522H
	DD	08H
	DD	FLAT:__unwindtable$??1Animation@Moo@@EAE@XZ
	DD	2 DUP(00H)
	DD	2 DUP(00H)
	DD	00H
	DD	01H
__unwindtable$??1Animation@Moo@@EAE@XZ DD 0ffffffffH
	DD	FLAT:__unwindfunclet$??1Animation@Moo@@EAE@XZ$0
	DD	00H
	DD	FLAT:__unwindfunclet$??1Animation@Moo@@EAE@XZ$1
	DD	01H
	DD	FLAT:__unwindfunclet$??1Animation@Moo@@EAE@XZ$2
	DD	02H
	DD	FLAT:__unwindfunclet$??1Animation@Moo@@EAE@XZ$3
	DD	03H
	DD	FLAT:__unwindfunclet$??1Animation@Moo@@EAE@XZ$4
	DD	04H
	DD	FLAT:__unwindfunclet$??1Animation@Moo@@EAE@XZ$5
	DD	05H
	DD	FLAT:__unwindfunclet$??1Animation@Moo@@EAE@XZ$6
	DD	06H
	DD	FLAT:__unwindfunclet$??1Animation@Moo@@EAE@XZ$7
; Function compile flags: /Odtp /RTCsu /ZI
xdata$x	ENDS
;	COMDAT ??1Animation@Moo@@EAE@XZ
_TEXT	SEGMENT
__BW_GUARD$ = -29					; size = 1
_this$ = -20						; size = 4
__$EHRec$ = -12						; size = 12
??1Animation@Moo@@EAE@XZ PROC				; Moo::Animation::~Animation, COMDAT
; _this$ = ecx
; Line 118
  00000	55		 push	 ebp
  00001	8b ec		 mov	 ebp, esp
  00003	6a ff		 push	 -1
  00005	68 00 00 00 00	 push	 __ehhandler$??1Animation@Moo@@EAE@XZ
  0000a	64 a1 00 00 00
	00		 mov	 eax, DWORD PTR fs:0
  00010	50		 push	 eax
  00011	81 ec d8 00 00
	00		 sub	 esp, 216		; 000000d8H
  00017	53		 push	 ebx
  00018	56		 push	 esi
  00019	57		 push	 edi
  0001a	51		 push	 ecx
  0001b	8d bd 1c ff ff
	ff		 lea	 edi, DWORD PTR [ebp-228]
  00021	b9 36 00 00 00	 mov	 ecx, 54			; 00000036H
  00026	b8 cc cc cc cc	 mov	 eax, -858993460		; ccccccccH
  0002b	f3 ab		 rep stosd
  0002d	59		 pop	 ecx
  0002e	a1 00 00 00 00	 mov	 eax, DWORD PTR ___security_cookie
  00033	33 c5		 xor	 eax, ebp
  00035	50		 push	 eax
  00036	8d 45 f4	 lea	 eax, DWORD PTR __$EHRec$[ebp]
  00039	64 a3 00 00 00
	00		 mov	 DWORD PTR fs:0, eax
  0003f	89 4d ec	 mov	 DWORD PTR _this$[ebp], ecx
  00042	8b 45 ec	 mov	 eax, DWORD PTR _this$[ebp]
  00045	c7 00 00 00 00
	00		 mov	 DWORD PTR [eax], OFFSET ??_7Animation@Moo@@6B@
  0004b	c7 45 fc 06 00
	00 00		 mov	 DWORD PTR __$EHRec$[ebp+8], 6
; Line 119
  00052	a1 00 00 00 00	 mov	 eax, DWORD PTR ?__LINE__Var@?1???1Animation@Moo@@EAE@XZ@4JA
  00057	83 c0 01	 add	 eax, 1
  0005a	50		 push	 eax
  0005b	68 00 00 00 00	 push	 OFFSET ??_C@_0CD@PMFAICH@e?3?2bw191?2src?2lib?2moo?2animation?4c@
  00060	68 00 00 00 00	 push	 OFFSET ??_C@_0BL@BDMGOIDG@Moo?3?3Animation?3?3?$HOAnimation?$AA@
  00065	8d 4d e3	 lea	 ecx, DWORD PTR __BW_GUARD$[ebp]
  00068	e8 00 00 00 00	 call	 ??0ScopedStackTrack@@QAE@PBD0I@Z ; ScopedStackTrack::ScopedStackTrack
  0006d	c6 45 fc 07	 mov	 BYTE PTR __$EHRec$[ebp+8], 7
; Line 123
  00071	8b 4d ec	 mov	 ecx, DWORD PTR _this$[ebp]
  00074	83 c1 68	 add	 ecx, 104		; 00000068H
  00077	e8 00 00 00 00	 call	 ??B?$ConstSmartPointer@VAnimation@Moo@@@@QBEPQ0@PBVAnimation@Moo@@XZ ; ConstSmartPointer<Moo::Animation>::operator Moo::Animation const * ConstSmartPointer<Moo::Animation>::*
  0007c	83 f8 ff	 cmp	 eax, -1
  0007f	75 10		 jne	 SHORT $LN1@Animation@3
  00081	8b 45 ec	 mov	 eax, DWORD PTR _this$[ebp]
  00084	50		 push	 eax
  00085	e8 00 00 00 00	 call	 ?instance@?$Singleton@VAnimationManager@Moo@@@@SAAAVAnimationManager@Moo@@XZ ; Singleton<Moo::AnimationManager>::instance
  0008a	8b c8		 mov	 ecx, eax
  0008c	e8 00 00 00 00	 call	 ?del@AnimationManager@Moo@@AAEXPAVAnimation@2@@Z ; Moo::AnimationManager::del
$LN1@Animation@3:
; Line 124
  00091	c6 45 fc 06	 mov	 BYTE PTR __$EHRec$[ebp+8], 6
  00095	8d 4d e3	 lea	 ecx, DWORD PTR __BW_GUARD$[ebp]
  00098	e8 00 00 00 00	 call	 ??1ScopedStackTrack@@QAE@XZ ; ScopedStackTrack::~ScopedStackTrack
  0009d	c6 45 fc 05	 mov	 BYTE PTR __$EHRec$[ebp+8], 5
  000a1	8b 4d ec	 mov	 ecx, DWORD PTR _this$[ebp]
  000a4	83 c1 6c	 add	 ecx, 108		; 0000006cH
  000a7	e8 00 00 00 00	 call	 ??1?$vector@V?$SmartPointer@VAnimationChannel@Moo@@@@V?$allocator@V?$SmartPointer@VAnimationChannel@Moo@@@@@std@@@std@@QAE@XZ ; std::vector<SmartPointer<Moo::AnimationChannel>,std::allocator<SmartPointer<Moo::AnimationChannel> > >::~vector<SmartPointer<Moo::AnimationChannel>,std::allocator<SmartPointer<Moo::AnimationChannel> > >
  000ac	c6 45 fc 04	 mov	 BYTE PTR __$EHRec$[ebp+8], 4
  000b0	8b 4d ec	 mov	 ecx, DWORD PTR _this$[ebp]
  000b3	83 c1 68	 add	 ecx, 104		; 00000068H
  000b6	e8 00 00 00 00	 call	 ??1?$SmartPointer@VAnimation@Moo@@@@QAE@XZ
  000bb	c6 45 fc 03	 mov	 BYTE PTR __$EHRec$[ebp+8], 3
  000bf	8b 4d ec	 mov	 ecx, DWORD PTR _this$[ebp]
  000c2	83 c1 64	 add	 ecx, 100		; 00000064H
  000c5	e8 00 00 00 00	 call	 ??1?$SmartPointer@VStreamedAnimation@Moo@@@@QAE@XZ
  000ca	c6 45 fc 02	 mov	 BYTE PTR __$EHRec$[ebp+8], 2
  000ce	8b 4d ec	 mov	 ecx, DWORD PTR _this$[ebp]
  000d1	83 c1 40	 add	 ecx, 64			; 00000040H
  000d4	8b f4		 mov	 esi, esp
  000d6	ff 15 00 00 00
	00		 call	 DWORD PTR __imp_??1?$basic_string@DU?$char_traits@D@std@@V?$allocator@D@2@@std@@QAE@XZ
  000dc	3b f4		 cmp	 esi, esp
  000de	e8 00 00 00 00	 call	 __RTC_CheckEsp
  000e3	c6 45 fc 01	 mov	 BYTE PTR __$EHRec$[ebp+8], 1
  000e7	8b 4d ec	 mov	 ecx, DWORD PTR _this$[ebp]
  000ea	83 c1 20	 add	 ecx, 32			; 00000020H
  000ed	8b f4		 mov	 esi, esp
  000ef	ff 15 00 00 00
	00		 call	 DWORD PTR __imp_??1?$basic_string@DU?$char_traits@D@std@@V?$allocator@D@2@@std@@QAE@XZ
  000f5	3b f4		 cmp	 esi, esp
  000f7	e8 00 00 00 00	 call	 __RTC_CheckEsp
  000fc	c6 45 fc 00	 mov	 BYTE PTR __$EHRec$[ebp+8], 0
  00100	8b 4d ec	 mov	 ecx, DWORD PTR _this$[ebp]
  00103	83 c1 0c	 add	 ecx, 12			; 0000000cH
  00106	e8 00 00 00 00	 call	 ??1?$vector@VChannelBinder@Moo@@V?$allocator@VChannelBinder@Moo@@@std@@@std@@QAE@XZ ; std::vector<Moo::ChannelBinder,std::allocator<Moo::ChannelBinder> >::~vector<Moo::ChannelBinder,std::allocator<Moo::ChannelBinder> >
  0010b	c7 45 fc ff ff
	ff ff		 mov	 DWORD PTR __$EHRec$[ebp+8], -1
  00112	8b 4d ec	 mov	 ecx, DWORD PTR _this$[ebp]
  00115	e8 00 00 00 00	 call	 ??1ReferenceCount@@UAE@XZ ; ReferenceCount::~ReferenceCount
  0011a	52		 push	 edx
  0011b	8b cd		 mov	 ecx, ebp
  0011d	50		 push	 eax
  0011e	8d 15 00 00 00
	00		 lea	 edx, DWORD PTR $LN15@Animation@3
  00124	e8 00 00 00 00	 call	 @_RTC_CheckStackVars@8
  00129	58		 pop	 eax
  0012a	5a		 pop	 edx
  0012b	8b 4d f4	 mov	 ecx, DWORD PTR __$EHRec$[ebp]
  0012e	64 89 0d 00 00
	00 00		 mov	 DWORD PTR fs:0, ecx
  00135	59		 pop	 ecx
  00136	5f		 pop	 edi
  00137	5e		 pop	 esi
  00138	5b		 pop	 ebx
  00139	81 c4 e4 00 00
	00		 add	 esp, 228		; 000000e4H
  0013f	3b ec		 cmp	 ebp, esp
  00141	e8 00 00 00 00	 call	 __RTC_CheckEsp
  00146	8b e5		 mov	 esp, ebp
  00148	5d		 pop	 ebp
  00149	c3		 ret	 0
  0014a	8b ff		 npad	 2
$LN15@Animation@3:
  0014c	01 00 00 00	 DD	 1
  00150	00 00 00 00	 DD	 $LN14@Animation@3
$LN14@Animation@3:
  00154	e3 ff ff ff	 DD	 -29			; ffffffe3H
  00158	01 00 00 00	 DD	 1
  0015c	00 00 00 00	 DD	 $LN12@Animation@3
$LN12@Animation@3:
  00160	5f		 DB	 95			; 0000005fH
  00161	42		 DB	 66			; 00000042H
  00162	57		 DB	 87			; 00000057H
  00163	5f		 DB	 95			; 0000005fH
  00164	47		 DB	 71			; 00000047H
  00165	55		 DB	 85			; 00000055H
  00166	41		 DB	 65			; 00000041H
  00167	52		 DB	 82			; 00000052H
  00168	44		 DB	 68			; 00000044H
  00169	00		 DB	 0
_TEXT	ENDS
;	COMDAT text$x
text$x	SEGMENT
__unwindfunclet$??1Animation@Moo@@EAE@XZ$0:
  00000	8b 4d ec	 mov	 ecx, DWORD PTR _this$[ebp]
  00003	e9 00 00 00 00	 jmp	 ??1ReferenceCount@@UAE@XZ ; ReferenceCount::~ReferenceCount
__unwindfunclet$??1Animation@Moo@@EAE@XZ$1:
  00008	8b 4d ec	 mov	 ecx, DWORD PTR _this$[ebp]
  0000b	83 c1 0c	 add	 ecx, 12			; 0000000cH
  0000e	e9 00 00 00 00	 jmp	 ??1?$vector@VChannelBinder@Moo@@V?$allocator@VChannelBinder@Moo@@@std@@@std@@QAE@XZ ; std::vector<Moo::ChannelBinder,std::allocator<Moo::ChannelBinder> >::~vector<Moo::ChannelBinder,std::allocator<Moo::ChannelBinder> >
__unwindfunclet$??1Animation@Moo@@EAE@XZ$2:
  00013	8b 4d ec	 mov	 ecx, DWORD PTR _this$[ebp]
  00016	83 c1 20	 add	 ecx, 32			; 00000020H
  00019	8b f4		 mov	 esi, esp
  0001b	ff 15 00 00 00
	00		 call	 DWORD PTR __imp_??1?$basic_string@DU?$char_traits@D@std@@V?$allocator@D@2@@std@@QAE@XZ
  00021	3b f4		 cmp	 esi, esp
  00023	e9 00 00 00 00	 jmp	 __RTC_CheckEsp
__unwindfunclet$??1Animation@Moo@@EAE@XZ$3:
  00028	8b 4d ec	 mov	 ecx, DWORD PTR _this$[ebp]
  0002b	83 c1 40	 add	 ecx, 64			; 00000040H
  0002e	8b f4		 mov	 esi, esp
  00030	ff 15 00 00 00
	00		 call	 DWORD PTR __imp_??1?$basic_string@DU?$char_traits@D@std@@V?$allocator@D@2@@std@@QAE@XZ
  00036	3b f4		 cmp	 esi, esp
  00038	e9 00 00 00 00	 jmp	 __RTC_CheckEsp
__unwindfunclet$??1Animation@Moo@@EAE@XZ$4:
  0003d	8b 4d ec	 mov	 ecx, DWORD PTR _this$[ebp]
  00040	83 c1 64	 add	 ecx, 100		; 00000064H
  00043	e9 00 00 00 00	 jmp	 ??1?$SmartPointer@VStreamedAnimation@Moo@@@@QAE@XZ
__unwindfunclet$??1Animation@Moo@@EAE@XZ$5:
  00048	8b 4d ec	 mov	 ecx, DWORD PTR _this$[ebp]
  0004b	83 c1 68	 add	 ecx, 104		; 00000068H
  0004e	e9 00 00 00 00	 jmp	 ??1?$SmartPointer@VAnimation@Moo@@@@QAE@XZ
__unwindfunclet$??1Animation@Moo@@EAE@XZ$6:
  00053	8b 4d ec	 mov	 ecx, DWORD PTR _this$[ebp]
  00056	83 c1 6c	 add	 ecx, 108		; 0000006cH
  00059	e9 00 00 00 00	 jmp	 ??1?$vector@V?$SmartPointer@VAnimationChannel@Moo@@@@V?$allocator@V?$SmartPointer@VAnimationChannel@Moo@@@@@std@@@std@@QAE@XZ ; std::vector<SmartPointer<Moo::AnimationChannel>,std::allocator<SmartPointer<Moo::AnimationChannel> > >::~vector<SmartPointer<Moo::AnimationChannel>,std::allocator<SmartPointer<Moo::AnimationChannel> > >
__unwindfunclet$??1Animation@Moo@@EAE@XZ$7:
  0005e	8d 4d e3	 lea	 ecx, DWORD PTR __BW_GUARD$[ebp]
  00061	e9 00 00 00 00	 jmp	 ??1ScopedStackTrack@@QAE@XZ ; ScopedStackTrack::~ScopedStackTrack
__ehhandler$??1Animation@Moo@@EAE@XZ:
  00066	8b 54 24 08	 mov	 edx, DWORD PTR [esp+8]
  0006a	8d 42 0c	 lea	 eax, DWORD PTR [edx+12]
  0006d	8b 8a 18 ff ff
	ff		 mov	 ecx, DWORD PTR [edx-232]
  00073	33 c8		 xor	 ecx, eax
  00075	e8 00 00 00 00	 call	 @__security_check_cookie@4
  0007a	b8 00 00 00 00	 mov	 eax, OFFSET __ehfuncinfo$??1Animation@Moo@@EAE@XZ
  0007f	e9 00 00 00 00	 jmp	 ___CxxFrameHandler3
text$x	ENDS
??1Animation@Moo@@EAE@XZ ENDP				; Moo::Animation::~Animation
PUBLIC	?size@?$vector@VChannelBinder@Moo@@V?$allocator@VChannelBinder@Moo@@@std@@@std@@QBEIXZ ; std::vector<Moo::ChannelBinder,std::allocator<Moo::ChannelBinder> >::size
; Function compile flags: /Odtp /RTCsu /ZI
;	COMDAT ?nChannelBinders@Animation@Moo@@QBEIXZ
_TEXT	SEGMENT
_this$ = -8						; size = 4
?nChannelBinders@Animation@Moo@@QBEIXZ PROC		; Moo::Animation::nChannelBinders, COMDAT
; _this$ = ecx
; Line 127
  00000	55		 push	 ebp
  00001	8b ec		 mov	 ebp, esp
  00003	81 ec cc 00 00
	00		 sub	 esp, 204		; 000000ccH
  00009	53		 push	 ebx
  0000a	56		 push	 esi
  0000b	57		 push	 edi
  0000c	51		 push	 ecx
  0000d	8d bd 34 ff ff
	ff		 lea	 edi, DWORD PTR [ebp-204]
  00013	b9 33 00 00 00	 mov	 ecx, 51			; 00000033H
  00018	b8 cc cc cc cc	 mov	 eax, -858993460		; ccccccccH
  0001d	f3 ab		 rep stosd
  0001f	59		 pop	 ecx
  00020	89 4d f8	 mov	 DWORD PTR _this$[ebp], ecx
; Line 128
  00023	8b 4d f8	 mov	 ecx, DWORD PTR _this$[ebp]
  00026	83 c1 0c	 add	 ecx, 12			; 0000000cH
  00029	e8 00 00 00 00	 call	 ?size@?$vector@VChannelBinder@Moo@@V?$allocator@VChannelBinder@Moo@@@std@@@std@@QBEIXZ ; std::vector<Moo::ChannelBinder,std::allocator<Moo::ChannelBinder> >::size
; Line 129
  0002e	5f		 pop	 edi
  0002f	5e		 pop	 esi
  00030	5b		 pop	 ebx
  00031	81 c4 cc 00 00
	00		 add	 esp, 204		; 000000ccH
  00037	3b ec		 cmp	 ebp, esp
  00039	e8 00 00 00 00	 call	 __RTC_CheckEsp
  0003e	8b e5		 mov	 esp, ebp
  00040	5d		 pop	 ebp
  00041	c3		 ret	 0
?nChannelBinders@Animation@Moo@@QBEIXZ ENDP		; Moo::Animation::nChannelBinders
_TEXT	ENDS
PUBLIC	??A?$vector@VChannelBinder@Moo@@V?$allocator@VChannelBinder@Moo@@@std@@@std@@QBEABVChannelBinder@Moo@@I@Z ; std::vector<Moo::ChannelBinder,std::allocator<Moo::ChannelBinder> >::operator[]
PUBLIC	??_C@_0EO@HCNPGMLK@FATAL?5ERROR?3?5?$CCindex?5out?5of?5range@ ; `string'
PUBLIC	??0DebugMsgHelper@@QAE@XZ			; DebugMsgHelper::DebugMsgHelper
PUBLIC	??_C@_0FN@OMPHNIFM@MF_ASSERT_DEV?5FAILED?3?5channelBin@ ; `string'
PUBLIC	??_C@_04GJPPFNOH@?5in?5?$AA@			; `string'
PUBLIC	??_C@_00CNPNBAHC@?$AA@				; `string'
PUBLIC	??_C@_0BO@JPHNDMIJ@Moo?3?3Animation?3?3channelBinder?$AA@ ; `string'
PUBLIC	?__LINE__Var@?1??channelBinder@Animation@Moo@@QBEABVChannelBinder@3@I@Z@4JA ; `Moo::Animation::channelBinder'::`2'::__LINE__Var
PUBLIC	?channelBinder@Animation@Moo@@QBEABVChannelBinder@2@I@Z ; Moo::Animation::channelBinder
EXTRN	?criticalMessage@DebugMsgHelper@@QAAXPBDZZ:PROC	; DebugMsgHelper::criticalMessage
EXTRN	?devCriticalMessage@DebugMsgHelper@@QAAXPBDZZ:PROC ; DebugMsgHelper::devCriticalMessage
;	COMDAT ??_C@_0EO@HCNPGMLK@FATAL?5ERROR?3?5?$CCindex?5out?5of?5range@
CONST	SEGMENT
??_C@_0EO@HCNPGMLK@FATAL?5ERROR?3?5?$CCindex?5out?5of?5range@ DB 'FATAL E'
	DB	'RROR: "index out of range"', 0aH, 'e:\bw191\src\lib\moo\anima'
	DB	'tion.cpp(%d)%s%s', 0aH, 00H			; `string'
CONST	ENDS
;	COMDAT ??_C@_0FN@OMPHNIFM@MF_ASSERT_DEV?5FAILED?3?5channelBin@
CONST	SEGMENT
??_C@_0FN@OMPHNIFM@MF_ASSERT_DEV?5FAILED?3?5channelBin@ DB 'MF_ASSERT_DEV'
	DB	' FAILED: channelBinders_.size() > i', 0aH, 'e:\bw191\src\lib\'
	DB	'moo\animation.cpp(%d)%s%s', 0aH, 00H	; `string'
CONST	ENDS
;	COMDAT ??_C@_04GJPPFNOH@?5in?5?$AA@
CONST	SEGMENT
??_C@_04GJPPFNOH@?5in?5?$AA@ DB ' in ', 00H		; `string'
CONST	ENDS
;	COMDAT ??_C@_00CNPNBAHC@?$AA@
CONST	SEGMENT
??_C@_00CNPNBAHC@?$AA@ DB 00H				; `string'
CONST	ENDS
;	COMDAT ??_C@_0BO@JPHNDMIJ@Moo?3?3Animation?3?3channelBinder?$AA@
CONST	SEGMENT
??_C@_0BO@JPHNDMIJ@Moo?3?3Animation?3?3channelBinder?$AA@ DB 'Moo::Animat'
	DB	'ion::channelBinder', 00H			; `string'
CONST	ENDS
;	COMDAT ?__LINE__Var@?1??channelBinder@Animation@Moo@@QBEABVChannelBinder@3@I@Z@4JA
_DATA	SEGMENT
?__LINE__Var@?1??channelBinder@Animation@Moo@@QBEABVChannelBinder@3@I@Z@4JA DD 084H ; `Moo::Animation::channelBinder'::`2'::__LINE__Var
_DATA	ENDS
;	COMDAT xdata$x
xdata$x	SEGMENT
__unwindtable$?channelBinder@Animation@Moo@@QBEABVChannelBinder@2@I@Z DD 0ffffffffH
	DD	FLAT:__unwindfunclet$?channelBinder@Animation@Moo@@QBEABVChannelBinder@2@I@Z$0
__ehfuncinfo$?channelBinder@Animation@Moo@@QBEABVChannelBinder@2@I@Z DD 019930522H
	DD	01H
	DD	FLAT:__unwindtable$?channelBinder@Animation@Moo@@QBEABVChannelBinder@2@I@Z
	DD	2 DUP(00H)
	DD	2 DUP(00H)
	DD	00H
	DD	01H
; Function compile flags: /Odtp /RTCsu /ZI
xdata$x	ENDS
;	COMDAT ?channelBinder@Animation@Moo@@QBEABVChannelBinder@2@I@Z
_TEXT	SEGMENT
tv93 = -276						; size = 4
tv81 = -276						; size = 4
$T144194 = -268						; size = 8
$T144197 = -252						; size = 8
$T144200 = -236						; size = 4
__BW_GUARD$ = -29					; size = 1
_this$ = -20						; size = 4
__$EHRec$ = -12						; size = 12
_i$ = 8							; size = 4
?channelBinder@Animation@Moo@@QBEABVChannelBinder@2@I@Z PROC ; Moo::Animation::channelBinder, COMDAT
; _this$ = ecx
; Line 132
  00000	55		 push	 ebp
  00001	8b ec		 mov	 ebp, esp
  00003	6a ff		 push	 -1
  00005	68 00 00 00 00	 push	 __ehhandler$?channelBinder@Animation@Moo@@QBEABVChannelBinder@2@I@Z
  0000a	64 a1 00 00 00
	00		 mov	 eax, DWORD PTR fs:0
  00010	50		 push	 eax
  00011	81 ec 08 01 00
	00		 sub	 esp, 264		; 00000108H
  00017	53		 push	 ebx
  00018	56		 push	 esi
  00019	57		 push	 edi
  0001a	51		 push	 ecx
  0001b	8d bd ec fe ff
	ff		 lea	 edi, DWORD PTR [ebp-276]
  00021	b9 42 00 00 00	 mov	 ecx, 66			; 00000042H
  00026	b8 cc cc cc cc	 mov	 eax, -858993460		; ccccccccH
  0002b	f3 ab		 rep stosd
  0002d	59		 pop	 ecx
  0002e	a1 00 00 00 00	 mov	 eax, DWORD PTR ___security_cookie
  00033	33 c5		 xor	 eax, ebp
  00035	50		 push	 eax
  00036	8d 45 f4	 lea	 eax, DWORD PTR __$EHRec$[ebp]
  00039	64 a3 00 00 00
	00		 mov	 DWORD PTR fs:0, eax
  0003f	89 4d ec	 mov	 DWORD PTR _this$[ebp], ecx
; Line 133
  00042	a1 00 00 00 00	 mov	 eax, DWORD PTR ?__LINE__Var@?1??channelBinder@Animation@Moo@@QBEABVChannelBinder@3@I@Z@4JA
  00047	83 c0 01	 add	 eax, 1
  0004a	50		 push	 eax
  0004b	68 00 00 00 00	 push	 OFFSET ??_C@_0CD@PMFAICH@e?3?2bw191?2src?2lib?2moo?2animation?4c@
  00050	68 00 00 00 00	 push	 OFFSET ??_C@_0BO@JPHNDMIJ@Moo?3?3Animation?3?3channelBinder?$AA@
  00055	8d 4d e3	 lea	 ecx, DWORD PTR __BW_GUARD$[ebp]
  00058	e8 00 00 00 00	 call	 ??0ScopedStackTrack@@QAE@PBD0I@Z ; ScopedStackTrack::ScopedStackTrack
  0005d	c7 45 fc 00 00
	00 00		 mov	 DWORD PTR __$EHRec$[ebp+8], 0
; Line 134
  00064	8b 4d ec	 mov	 ecx, DWORD PTR _this$[ebp]
  00067	83 c1 0c	 add	 ecx, 12			; 0000000cH
  0006a	e8 00 00 00 00	 call	 ?size@?$vector@VChannelBinder@Moo@@V?$allocator@VChannelBinder@Moo@@@std@@@std@@QBEIXZ ; std::vector<Moo::ChannelBinder,std::allocator<Moo::ChannelBinder> >::size
  0006f	3b 45 08	 cmp	 eax, DWORD PTR _i$[ebp]
  00072	0f 87 a9 00 00
	00		 ja	 $LN1@channelBin
  00078	0f be 05 00 00
	00 00		 movsx	 eax, BYTE PTR ??_C@_00CNPNBAHC@?$AA@
  0007f	85 c0		 test	 eax, eax
  00081	74 0c		 je	 SHORT $LN4@channelBin
  00083	c7 85 ec fe ff
	ff 00 00 00 00	 mov	 DWORD PTR tv81[ebp], OFFSET ??_C@_04GJPPFNOH@?5in?5?$AA@
  0008d	eb 0a		 jmp	 SHORT $LN5@channelBin
$LN4@channelBin:
  0008f	c7 85 ec fe ff
	ff 00 00 00 00	 mov	 DWORD PTR tv81[ebp], OFFSET ??_C@_00CNPNBAHC@?$AA@
$LN5@channelBin:
  00099	68 00 00 00 00	 push	 OFFSET ??_C@_00CNPNBAHC@?$AA@
  0009e	8b 8d ec fe ff
	ff		 mov	 ecx, DWORD PTR tv81[ebp]
  000a4	51		 push	 ecx
  000a5	8b 15 00 00 00
	00		 mov	 edx, DWORD PTR ?__LINE__Var@?1??channelBinder@Animation@Moo@@QBEABVChannelBinder@3@I@Z@4JA
  000ab	83 c2 02	 add	 edx, 2
  000ae	52		 push	 edx
  000af	68 00 00 00 00	 push	 OFFSET ??_C@_0FN@OMPHNIFM@MF_ASSERT_DEV?5FAILED?3?5channelBin@
  000b4	8d 8d f4 fe ff
	ff		 lea	 ecx, DWORD PTR $T144194[ebp]
  000ba	e8 00 00 00 00	 call	 ??0DebugMsgHelper@@QAE@XZ ; DebugMsgHelper::DebugMsgHelper
  000bf	50		 push	 eax
  000c0	e8 00 00 00 00	 call	 ?devCriticalMessage@DebugMsgHelper@@QAAXPBDZZ ; DebugMsgHelper::devCriticalMessage
  000c5	83 c4 14	 add	 esp, 20			; 00000014H
  000c8	b8 01 00 00 00	 mov	 eax, 1
  000cd	85 c0		 test	 eax, eax
  000cf	74 50		 je	 SHORT $LN1@channelBin
; Line 136
  000d1	0f be 05 00 00
	00 00		 movsx	 eax, BYTE PTR ??_C@_00CNPNBAHC@?$AA@
  000d8	85 c0		 test	 eax, eax
  000da	74 0c		 je	 SHORT $LN6@channelBin
  000dc	c7 85 ec fe ff
	ff 00 00 00 00	 mov	 DWORD PTR tv93[ebp], OFFSET ??_C@_04GJPPFNOH@?5in?5?$AA@
  000e6	eb 0a		 jmp	 SHORT $LN7@channelBin
$LN6@channelBin:
  000e8	c7 85 ec fe ff
	ff 00 00 00 00	 mov	 DWORD PTR tv93[ebp], OFFSET ??_C@_00CNPNBAHC@?$AA@
$LN7@channelBin:
  000f2	68 00 00 00 00	 push	 OFFSET ??_C@_00CNPNBAHC@?$AA@
  000f7	8b 8d ec fe ff
	ff		 mov	 ecx, DWORD PTR tv93[ebp]
  000fd	51		 push	 ecx
  000fe	8b 15 00 00 00
	00		 mov	 edx, DWORD PTR ?__LINE__Var@?1??channelBinder@Animation@Moo@@QBEABVChannelBinder@3@I@Z@4JA
  00104	83 c2 04	 add	 edx, 4
  00107	52		 push	 edx
  00108	68 00 00 00 00	 push	 OFFSET ??_C@_0EO@HCNPGMLK@FATAL?5ERROR?3?5?$CCindex?5out?5of?5range@
  0010d	8d 8d 04 ff ff
	ff		 lea	 ecx, DWORD PTR $T144197[ebp]
  00113	e8 00 00 00 00	 call	 ??0DebugMsgHelper@@QAE@XZ ; DebugMsgHelper::DebugMsgHelper
  00118	50		 push	 eax
  00119	e8 00 00 00 00	 call	 ?criticalMessage@DebugMsgHelper@@QAAXPBDZZ ; DebugMsgHelper::criticalMessage
  0011e	83 c4 14	 add	 esp, 20			; 00000014H
$LN1@channelBin:
; Line 139
  00121	8b 45 08	 mov	 eax, DWORD PTR _i$[ebp]
  00124	50		 push	 eax
  00125	8b 4d ec	 mov	 ecx, DWORD PTR _this$[ebp]
  00128	83 c1 0c	 add	 ecx, 12			; 0000000cH
  0012b	e8 00 00 00 00	 call	 ??A?$vector@VChannelBinder@Moo@@V?$allocator@VChannelBinder@Moo@@@std@@@std@@QBEABVChannelBinder@Moo@@I@Z ; std::vector<Moo::ChannelBinder,std::allocator<Moo::ChannelBinder> >::operator[]
  00130	89 85 14 ff ff
	ff		 mov	 DWORD PTR $T144200[ebp], eax
  00136	c7 45 fc ff ff
	ff ff		 mov	 DWORD PTR __$EHRec$[ebp+8], -1
  0013d	8d 4d e3	 lea	 ecx, DWORD PTR __BW_GUARD$[ebp]
  00140	e8 00 00 00 00	 call	 ??1ScopedStackTrack@@QAE@XZ ; ScopedStackTrack::~ScopedStackTrack
  00145	8b 85 14 ff ff
	ff		 mov	 eax, DWORD PTR $T144200[ebp]
; Line 140
  0014b	52		 push	 edx
  0014c	8b cd		 mov	 ecx, ebp
  0014e	50		 push	 eax
  0014f	8d 15 00 00 00
	00		 lea	 edx, DWORD PTR $LN12@channelBin
  00155	e8 00 00 00 00	 call	 @_RTC_CheckStackVars@8
  0015a	58		 pop	 eax
  0015b	5a		 pop	 edx
  0015c	8b 4d f4	 mov	 ecx, DWORD PTR __$EHRec$[ebp]
  0015f	64 89 0d 00 00
	00 00		 mov	 DWORD PTR fs:0, ecx
  00166	59		 pop	 ecx
  00167	5f		 pop	 edi
  00168	5e		 pop	 esi
  00169	5b		 pop	 ebx
  0016a	81 c4 14 01 00
	00		 add	 esp, 276		; 00000114H
  00170	3b ec		 cmp	 ebp, esp
  00172	e8 00 00 00 00	 call	 __RTC_CheckEsp
  00177	8b e5		 mov	 esp, ebp
  00179	5d		 pop	 ebp
  0017a	c2 04 00	 ret	 4
  0017d	8d 49 00	 npad	 3
$LN12@channelBin:
  00180	01 00 00 00	 DD	 1
  00184	00 00 00 00	 DD	 $LN11@channelBin
$LN11@channelBin:
  00188	e3 ff ff ff	 DD	 -29			; ffffffe3H
  0018c	01 00 00 00	 DD	 1
  00190	00 00 00 00	 DD	 $LN9@channelBin
$LN9@channelBin:
  00194	5f		 DB	 95			; 0000005fH
  00195	42		 DB	 66			; 00000042H
  00196	57		 DB	 87			; 00000057H
  00197	5f		 DB	 95			; 0000005fH
  00198	47		 DB	 71			; 00000047H
  00199	55		 DB	 85			; 00000055H
  0019a	41		 DB	 65			; 00000041H
  0019b	52		 DB	 82			; 00000052H
  0019c	44		 DB	 68			; 00000044H
  0019d	00		 DB	 0
_TEXT	ENDS
;	COMDAT text$x
text$x	SEGMENT
__unwindfunclet$?channelBinder@Animation@Moo@@QBEABVChannelBinder@2@I@Z$0:
  00000	8d 4d e3	 lea	 ecx, DWORD PTR __BW_GUARD$[ebp]
  00003	e9 00 00 00 00	 jmp	 ??1ScopedStackTrack@@QAE@XZ ; ScopedStackTrack::~ScopedStackTrack
__ehhandler$?channelBinder@Animation@Moo@@QBEABVChannelBinder@2@I@Z:
  00008	8b 54 24 08	 mov	 edx, DWORD PTR [esp+8]
  0000c	8d 42 0c	 lea	 eax, DWORD PTR [edx+12]
  0000f	8b 8a e8 fe ff
	ff		 mov	 ecx, DWORD PTR [edx-280]
  00015	33 c8		 xor	 ecx, eax
  00017	e8 00 00 00 00	 call	 @__security_check_cookie@4
  0001c	b8 00 00 00 00	 mov	 eax, OFFSET __ehfuncinfo$?channelBinder@Animation@Moo@@QBEABVChannelBinder@2@I@Z
  00021	e9 00 00 00 00	 jmp	 ___CxxFrameHandler3
text$x	ENDS
?channelBinder@Animation@Moo@@QBEABVChannelBinder@2@I@Z ENDP ; Moo::Animation::channelBinder
PUBLIC	??A?$vector@VChannelBinder@Moo@@V?$allocator@VChannelBinder@Moo@@@std@@@std@@QAEAAVChannelBinder@Moo@@I@Z ; std::vector<Moo::ChannelBinder,std::allocator<Moo::ChannelBinder> >::operator[]
PUBLIC	?__LINE__Var@?1??channelBinder@Animation@Moo@@QAEAAVChannelBinder@3@I@Z@4JA ; `Moo::Animation::channelBinder'::`2'::__LINE__Var
;	COMDAT ?__LINE__Var@?1??channelBinder@Animation@Moo@@QAEAAVChannelBinder@3@I@Z@4JA
_DATA	SEGMENT
?__LINE__Var@?1??channelBinder@Animation@Moo@@QAEAAVChannelBinder@3@I@Z@4JA DD 08fH ; `Moo::Animation::channelBinder'::`2'::__LINE__Var
_DATA	ENDS
;	COMDAT xdata$x
xdata$x	SEGMENT
__unwindtable$?channelBinder@Animation@Moo@@QAEAAVChannelBinder@2@I@Z DD 0ffffffffH
	DD	FLAT:__unwindfunclet$?channelBinder@Animation@Moo@@QAEAAVChannelBinder@2@I@Z$0
__ehfuncinfo$?channelBinder@Animation@Moo@@QAEAAVChannelBinder@2@I@Z DD 019930522H
	DD	01H
	DD	FLAT:__unwindtable$?channelBinder@Animation@Moo@@QAEAAVChannelBinder@2@I@Z
	DD	2 DUP(00H)
	DD	2 DUP(00H)
	DD	00H
	DD	01H
; Function compile flags: /Odtp /RTCsu /ZI
xdata$x	ENDS
;	COMDAT ?channelBinder@Animation@Moo@@QAEAAVChannelBinder@2@I@Z
_TEXT	SEGMENT
tv93 = -276						; size = 4
tv81 = -276						; size = 4
$T144213 = -268						; size = 8
$T144216 = -252						; size = 8
$T144219 = -236						; size = 4
__BW_GUARD$ = -29					; size = 1
_this$ = -20						; size = 4
__$EHRec$ = -12						; size = 12
_i$ = 8							; size = 4
?channelBinder@Animation@Moo@@QAEAAVChannelBinder@2@I@Z PROC ; Moo::Animation::channelBinder, COMDAT
; _this$ = ecx
; Line 143
  00000	55		 push	 ebp
  00001	8b ec		 mov	 ebp, esp
  00003	6a ff		 push	 -1
  00005	68 00 00 00 00	 push	 __ehhandler$?channelBinder@Animation@Moo@@QAEAAVChannelBinder@2@I@Z
  0000a	64 a1 00 00 00
	00		 mov	 eax, DWORD PTR fs:0
  00010	50		 push	 eax
  00011	81 ec 08 01 00
	00		 sub	 esp, 264		; 00000108H
  00017	53		 push	 ebx
  00018	56		 push	 esi
  00019	57		 push	 edi
  0001a	51		 push	 ecx
  0001b	8d bd ec fe ff
	ff		 lea	 edi, DWORD PTR [ebp-276]
  00021	b9 42 00 00 00	 mov	 ecx, 66			; 00000042H
  00026	b8 cc cc cc cc	 mov	 eax, -858993460		; ccccccccH
  0002b	f3 ab		 rep stosd
  0002d	59		 pop	 ecx
  0002e	a1 00 00 00 00	 mov	 eax, DWORD PTR ___security_cookie
  00033	33 c5		 xor	 eax, ebp
  00035	50		 push	 eax
  00036	8d 45 f4	 lea	 eax, DWORD PTR __$EHRec$[ebp]
  00039	64 a3 00 00 00
	00		 mov	 DWORD PTR fs:0, eax
  0003f	89 4d ec	 mov	 DWORD PTR _this$[ebp], ecx
; Line 144
  00042	a1 00 00 00 00	 mov	 eax, DWORD PTR ?__LINE__Var@?1??channelBinder@Animation@Moo@@QAEAAVChannelBinder@3@I@Z@4JA
  00047	83 c0 01	 add	 eax, 1
  0004a	50		 push	 eax
  0004b	68 00 00 00 00	 push	 OFFSET ??_C@_0CD@PMFAICH@e?3?2bw191?2src?2lib?2moo?2animation?4c@
  00050	68 00 00 00 00	 push	 OFFSET ??_C@_0BO@JPHNDMIJ@Moo?3?3Animation?3?3channelBinder?$AA@
  00055	8d 4d e3	 lea	 ecx, DWORD PTR __BW_GUARD$[ebp]
  00058	e8 00 00 00 00	 call	 ??0ScopedStackTrack@@QAE@PBD0I@Z ; ScopedStackTrack::ScopedStackTrack
  0005d	c7 45 fc 00 00
	00 00		 mov	 DWORD PTR __$EHRec$[ebp+8], 0
; Line 145
  00064	8b 4d ec	 mov	 ecx, DWORD PTR _this$[ebp]
  00067	83 c1 0c	 add	 ecx, 12			; 0000000cH
  0006a	e8 00 00 00 00	 call	 ?size@?$vector@VChannelBinder@Moo@@V?$allocator@VChannelBinder@Moo@@@std@@@std@@QBEIXZ ; std::vector<Moo::ChannelBinder,std::allocator<Moo::ChannelBinder> >::size
  0006f	3b 45 08	 cmp	 eax, DWORD PTR _i$[ebp]
  00072	0f 87 a9 00 00
	00		 ja	 $LN1@channelBin@2
  00078	0f be 05 00 00
	00 00		 movsx	 eax, BYTE PTR ??_C@_00CNPNBAHC@?$AA@
  0007f	85 c0		 test	 eax, eax
  00081	74 0c		 je	 SHORT $LN4@channelBin@2
  00083	c7 85 ec fe ff
	ff 00 00 00 00	 mov	 DWORD PTR tv81[ebp], OFFSET ??_C@_04GJPPFNOH@?5in?5?$AA@
  0008d	eb 0a		 jmp	 SHORT $LN5@channelBin@2
$LN4@channelBin@2:
  0008f	c7 85 ec fe ff
	ff 00 00 00 00	 mov	 DWORD PTR tv81[ebp], OFFSET ??_C@_00CNPNBAHC@?$AA@
$LN5@channelBin@2:
  00099	68 00 00 00 00	 push	 OFFSET ??_C@_00CNPNBAHC@?$AA@
  0009e	8b 8d ec fe ff
	ff		 mov	 ecx, DWORD PTR tv81[ebp]
  000a4	51		 push	 ecx
  000a5	8b 15 00 00 00
	00		 mov	 edx, DWORD PTR ?__LINE__Var@?1??channelBinder@Animation@Moo@@QAEAAVChannelBinder@3@I@Z@4JA
  000ab	83 c2 02	 add	 edx, 2
  000ae	52		 push	 edx
  000af	68 00 00 00 00	 push	 OFFSET ??_C@_0FN@OMPHNIFM@MF_ASSERT_DEV?5FAILED?3?5channelBin@
  000b4	8d 8d f4 fe ff
	ff		 lea	 ecx, DWORD PTR $T144213[ebp]
  000ba	e8 00 00 00 00	 call	 ??0DebugMsgHelper@@QAE@XZ ; DebugMsgHelper::DebugMsgHelper
  000bf	50		 push	 eax
  000c0	e8 00 00 00 00	 call	 ?devCriticalMessage@DebugMsgHelper@@QAAXPBDZZ ; DebugMsgHelper::devCriticalMessage
  000c5	83 c4 14	 add	 esp, 20			; 00000014H
  000c8	b8 01 00 00 00	 mov	 eax, 1
  000cd	85 c0		 test	 eax, eax
  000cf	74 50		 je	 SHORT $LN1@channelBin@2
; Line 147
  000d1	0f be 05 00 00
	00 00		 movsx	 eax, BYTE PTR ??_C@_00CNPNBAHC@?$AA@
  000d8	85 c0		 test	 eax, eax
  000da	74 0c		 je	 SHORT $LN6@channelBin@2
  000dc	c7 85 ec fe ff
	ff 00 00 00 00	 mov	 DWORD PTR tv93[ebp], OFFSET ??_C@_04GJPPFNOH@?5in?5?$AA@
  000e6	eb 0a		 jmp	 SHORT $LN7@channelBin@2
$LN6@channelBin@2:
  000e8	c7 85 ec fe ff
	ff 00 00 00 00	 mov	 DWORD PTR tv93[ebp], OFFSET ??_C@_00CNPNBAHC@?$AA@
$LN7@channelBin@2:
  000f2	68 00 00 00 00	 push	 OFFSET ??_C@_00CNPNBAHC@?$AA@
  000f7	8b 8d ec fe ff
	ff		 mov	 ecx, DWORD PTR tv93[ebp]
  000fd	51		 push	 ecx
  000fe	8b 15 00 00 00
	00		 mov	 edx, DWORD PTR ?__LINE__Var@?1??channelBinder@Animation@Moo@@QAEAAVChannelBinder@3@I@Z@4JA
  00104	83 c2 04	 add	 edx, 4
  00107	52		 push	 edx
  00108	68 00 00 00 00	 push	 OFFSET ??_C@_0EO@HCNPGMLK@FATAL?5ERROR?3?5?$CCindex?5out?5of?5range@
  0010d	8d 8d 04 ff ff
	ff		 lea	 ecx, DWORD PTR $T144216[ebp]
  00113	e8 00 00 00 00	 call	 ??0DebugMsgHelper@@QAE@XZ ; DebugMsgHelper::DebugMsgHelper
  00118	50		 push	 eax
  00119	e8 00 00 00 00	 call	 ?criticalMessage@DebugMsgHelper@@QAAXPBDZZ ; DebugMsgHelper::criticalMessage
  0011e	83 c4 14	 add	 esp, 20			; 00000014H
$LN1@channelBin@2:
; Line 150
  00121	8b 45 08	 mov	 eax, DWORD PTR _i$[ebp]
  00124	50		 push	 eax
  00125	8b 4d ec	 mov	 ecx, DWORD PTR _this$[ebp]
  00128	83 c1 0c	 add	 ecx, 12			; 0000000cH
  0012b	e8 00 00 00 00	 call	 ??A?$vector@VChannelBinder@Moo@@V?$allocator@VChannelBinder@Moo@@@std@@@std@@QAEAAVChannelBinder@Moo@@I@Z ; std::vector<Moo::ChannelBinder,std::allocator<Moo::ChannelBinder> >::operator[]
  00130	89 85 14 ff ff
	ff		 mov	 DWORD PTR $T144219[ebp], eax
  00136	c7 45 fc ff ff
	ff ff		 mov	 DWORD PTR __$EHRec$[ebp+8], -1
  0013d	8d 4d e3	 lea	 ecx, DWORD PTR __BW_GUARD$[ebp]
  00140	e8 00 00 00 00	 call	 ??1ScopedStackTrack@@QAE@XZ ; ScopedStackTrack::~ScopedStackTrack
  00145	8b 85 14 ff ff
	ff		 mov	 eax, DWORD PTR $T144219[ebp]
; Line 151
  0014b	52		 push	 edx
  0014c	8b cd		 mov	 ecx, ebp
  0014e	50		 push	 eax
  0014f	8d 15 00 00 00
	00		 lea	 edx, DWORD PTR $LN12@channelBin@2
  00155	e8 00 00 00 00	 call	 @_RTC_CheckStackVars@8
  0015a	58		 pop	 eax
  0015b	5a		 pop	 edx
  0015c	8b 4d f4	 mov	 ecx, DWORD PTR __$EHRec$[ebp]
  0015f	64 89 0d 00 00
	00 00		 mov	 DWORD PTR fs:0, ecx
  00166	59		 pop	 ecx
  00167	5f		 pop	 edi
  00168	5e		 pop	 esi
  00169	5b		 pop	 ebx
  0016a	81 c4 14 01 00
	00		 add	 esp, 276		; 00000114H
  00170	3b ec		 cmp	 ebp, esp
  00172	e8 00 00 00 00	 call	 __RTC_CheckEsp
  00177	8b e5		 mov	 esp, ebp
  00179	5d		 pop	 ebp
  0017a	c2 04 00	 ret	 4
  0017d	8d 49 00	 npad	 3
$LN12@channelBin@2:
  00180	01 00 00 00	 DD	 1
  00184	00 00 00 00	 DD	 $LN11@channelBin@2
$LN11@channelBin@2:
  00188	e3 ff ff ff	 DD	 -29			; ffffffe3H
  0018c	01 00 00 00	 DD	 1
  00190	00 00 00 00	 DD	 $LN9@channelBin@2
$LN9@channelBin@2:
  00194	5f		 DB	 95			; 0000005fH
  00195	42		 DB	 66			; 00000042H
  00196	57		 DB	 87			; 00000057H
  00197	5f		 DB	 95			; 0000005fH
  00198	47		 DB	 71			; 00000047H
  00199	55		 DB	 85			; 00000055H
  0019a	41		 DB	 65			; 00000041H
  0019b	52		 DB	 82			; 00000052H
  0019c	44		 DB	 68			; 00000044H
  0019d	00		 DB	 0
_TEXT	ENDS
;	COMDAT text$x
text$x	SEGMENT
__unwindfunclet$?channelBinder@Animation@Moo@@QAEAAVChannelBinder@2@I@Z$0:
  00000	8d 4d e3	 lea	 ecx, DWORD PTR __BW_GUARD$[ebp]
  00003	e9 00 00 00 00	 jmp	 ??1ScopedStackTrack@@QAE@XZ ; ScopedStackTrack::~ScopedStackTrack
__ehhandler$?channelBinder@Animation@Moo@@QAEAAVChannelBinder@2@I@Z:
  00008	8b 54 24 08	 mov	 edx, DWORD PTR [esp+8]
  0000c	8d 42 0c	 lea	 eax, DWORD PTR [edx+12]
  0000f	8b 8a e8 fe ff
	ff		 mov	 ecx, DWORD PTR [edx-280]
  00015	33 c8		 xor	 ecx, eax
  00017	e8 00 00 00 00	 call	 @__security_check_cookie@4
  0001c	b8 00 00 00 00	 mov	 eax, OFFSET __ehfuncinfo$?channelBinder@Animation@Moo@@QAEAAVChannelBinder@2@I@Z
  00021	e9 00 00 00 00	 jmp	 ___CxxFrameHandler3
text$x	ENDS
?channelBinder@Animation@Moo@@QAEAAVChannelBinder@2@I@Z ENDP ; Moo::Animation::channelBinder
PUBLIC	?push_back@?$vector@V?$SmartPointer@VAnimationChannel@Moo@@@@V?$allocator@V?$SmartPointer@VAnimationChannel@Moo@@@@@std@@@std@@QAEXABV?$SmartPointer@VAnimationChannel@Moo@@@@@Z ; std::vector<SmartPointer<Moo::AnimationChannel>,std::allocator<SmartPointer<Moo::AnimationChannel> > >::push_back
PUBLIC	??B?$ConstSmartPointer@VAnimationChannel@Moo@@@@QBEPQ0@PBVAnimationChannel@Moo@@XZ ; ConstSmartPointer<Moo::AnimationChannel>::operator Moo::AnimationChannel const * ConstSmartPointer<Moo::AnimationChannel>::*
PUBLIC	??_C@_0CB@BKLFCPAI@Moo?3?3Animation?3?3addChannelBinder@ ; `string'
PUBLIC	?__LINE__Var@?1??addChannelBinder@Animation@Moo@@QAEXABVChannelBinder@3@@Z@4JA ; `Moo::Animation::addChannelBinder'::`2'::__LINE__Var
PUBLIC	?addChannelBinder@Animation@Moo@@QAEXABVChannelBinder@2@@Z ; Moo::Animation::addChannelBinder
;	COMDAT ??_C@_0CB@BKLFCPAI@Moo?3?3Animation?3?3addChannelBinder@
CONST	SEGMENT
??_C@_0CB@BKLFCPAI@Moo?3?3Animation?3?3addChannelBinder@ DB 'Moo::Animati'
	DB	'on::addChannelBinder', 00H			; `string'
CONST	ENDS
;	COMDAT ?__LINE__Var@?1??addChannelBinder@Animation@Moo@@QAEXABVChannelBinder@3@@Z@4JA
_DATA	SEGMENT
?__LINE__Var@?1??addChannelBinder@Animation@Moo@@QAEXABVChannelBinder@3@@Z@4JA DD 09aH ; `Moo::Animation::addChannelBinder'::`2'::__LINE__Var
_DATA	ENDS
;	COMDAT xdata$x
xdata$x	SEGMENT
__unwindtable$?addChannelBinder@Animation@Moo@@QAEXABVChannelBinder@2@@Z DD 0ffffffffH
	DD	FLAT:__unwindfunclet$?addChannelBinder@Animation@Moo@@QAEXABVChannelBinder@2@@Z$0
	DD	00H
	DD	FLAT:__unwindfunclet$?addChannelBinder@Animation@Moo@@QAEXABVChannelBinder@2@@Z$1
	DD	01H
	DD	FLAT:__unwindfunclet$?addChannelBinder@Animation@Moo@@QAEXABVChannelBinder@2@@Z$2
	DD	00H
	DD	FLAT:__unwindfunclet$?addChannelBinder@Animation@Moo@@QAEXABVChannelBinder@2@@Z$3
__ehfuncinfo$?addChannelBinder@Animation@Moo@@QAEXABVChannelBinder@2@@Z DD 019930522H
	DD	04H
	DD	FLAT:__unwindtable$?addChannelBinder@Animation@Moo@@QAEXABVChannelBinder@2@@Z
	DD	2 DUP(00H)
	DD	2 DUP(00H)
	DD	00H
	DD	01H
; Function compile flags: /Odtp /RTCsu /ZI
xdata$x	ENDS
;	COMDAT ?addChannelBinder@Animation@Moo@@QAEXABVChannelBinder@2@@Z
_TEXT	SEGMENT
tv129 = -312						; size = 4
tv91 = -308						; size = 4
tv151 = -304						; size = 4
tv159 = -300						; size = 4
tv157 = -296						; size = 4
tv146 = -296						; size = 4
tv161 = -292						; size = 4
tv65 = -292						; size = 4
$T144232 = -281						; size = 1
$T144233 = -272						; size = 4
$T144234 = -260						; size = 4
$T144237 = -248						; size = 4
$T144239 = -236						; size = 4
__BW_GUARD$ = -29					; size = 1
_this$ = -20						; size = 4
__$EHRec$ = -12						; size = 12
_binder$ = 8						; size = 4
?addChannelBinder@Animation@Moo@@QAEXABVChannelBinder@2@@Z PROC ; Moo::Animation::addChannelBinder, COMDAT
; _this$ = ecx
; Line 154
  00000	55		 push	 ebp
  00001	8b ec		 mov	 ebp, esp
  00003	6a ff		 push	 -1
  00005	68 00 00 00 00	 push	 __ehhandler$?addChannelBinder@Animation@Moo@@QAEXABVChannelBinder@2@@Z
  0000a	64 a1 00 00 00
	00		 mov	 eax, DWORD PTR fs:0
  00010	50		 push	 eax
  00011	81 ec 2c 01 00
	00		 sub	 esp, 300		; 0000012cH
  00017	53		 push	 ebx
  00018	56		 push	 esi
  00019	57		 push	 edi
  0001a	51		 push	 ecx
  0001b	8d bd c8 fe ff
	ff		 lea	 edi, DWORD PTR [ebp-312]
  00021	b9 4b 00 00 00	 mov	 ecx, 75			; 0000004bH
  00026	b8 cc cc cc cc	 mov	 eax, -858993460		; ccccccccH
  0002b	f3 ab		 rep stosd
  0002d	59		 pop	 ecx
  0002e	a1 00 00 00 00	 mov	 eax, DWORD PTR ___security_cookie
  00033	33 c5		 xor	 eax, ebp
  00035	50		 push	 eax
  00036	8d 45 f4	 lea	 eax, DWORD PTR __$EHRec$[ebp]
  00039	64 a3 00 00 00
	00		 mov	 DWORD PTR fs:0, eax
  0003f	89 4d ec	 mov	 DWORD PTR _this$[ebp], ecx
  00042	c7 85 14 ff ff
	ff 00 00 00 00	 mov	 DWORD PTR $T144239[ebp], 0
; Line 155
  0004c	a1 00 00 00 00	 mov	 eax, DWORD PTR ?__LINE__Var@?1??addChannelBinder@Animation@Moo@@QAEXABVChannelBinder@3@@Z@4JA
  00051	83 c0 01	 add	 eax, 1
  00054	50		 push	 eax
  00055	68 00 00 00 00	 push	 OFFSET ??_C@_0CD@PMFAICH@e?3?2bw191?2src?2lib?2moo?2animation?4c@
  0005a	68 00 00 00 00	 push	 OFFSET ??_C@_0CB@BKLFCPAI@Moo?3?3Animation?3?3addChannelBinder@
  0005f	8d 4d e3	 lea	 ecx, DWORD PTR __BW_GUARD$[ebp]
  00062	e8 00 00 00 00	 call	 ??0ScopedStackTrack@@QAE@PBD0I@Z ; ScopedStackTrack::ScopedStackTrack
  00067	c7 45 fc 00 00
	00 00		 mov	 DWORD PTR __$EHRec$[ebp+8], 0
; Line 156
  0006e	8b 45 08	 mov	 eax, DWORD PTR _binder$[ebp]
  00071	50		 push	 eax
  00072	8b 4d ec	 mov	 ecx, DWORD PTR _this$[ebp]
  00075	83 c1 0c	 add	 ecx, 12			; 0000000cH
  00078	e8 00 00 00 00	 call	 ?push_back@?$vector@VChannelBinder@Moo@@V?$allocator@VChannelBinder@Moo@@@std@@@std@@QAEXABVChannelBinder@Moo@@@Z ; std::vector<Moo::ChannelBinder,std::allocator<Moo::ChannelBinder> >::push_back
; Line 157
  0007d	8b 45 ec	 mov	 eax, DWORD PTR _this$[ebp]
  00080	c7 40 60 00 00
	00 00		 mov	 DWORD PTR [eax+96], 0
; Line 158
  00087	8d 85 f0 fe ff
	ff		 lea	 eax, DWORD PTR $T144233[ebp]
  0008d	50		 push	 eax
  0008e	8b 4d 08	 mov	 ecx, DWORD PTR _binder$[ebp]
  00091	e8 00 00 00 00	 call	 ?channel@ChannelBinder@Moo@@QBE?AV?$SmartPointer@VAnimationChannel@Moo@@@@XZ ; Moo::ChannelBinder::channel
  00096	89 85 dc fe ff
	ff		 mov	 DWORD PTR tv65[ebp], eax
  0009c	8b 8d dc fe ff
	ff		 mov	 ecx, DWORD PTR tv65[ebp]
  000a2	89 8d d8 fe ff
	ff		 mov	 DWORD PTR tv146[ebp], ecx
  000a8	c6 45 fc 01	 mov	 BYTE PTR __$EHRec$[ebp+8], 1
  000ac	8b 95 14 ff ff
	ff		 mov	 edx, DWORD PTR $T144239[ebp]
  000b2	83 ca 01	 or	 edx, 1
  000b5	89 95 14 ff ff
	ff		 mov	 DWORD PTR $T144239[ebp], edx
  000bb	8b 8d d8 fe ff
	ff		 mov	 ecx, DWORD PTR tv146[ebp]
  000c1	e8 00 00 00 00	 call	 ??B?$ConstSmartPointer@VAnimationChannel@Moo@@@@QBEPQ0@PBVAnimationChannel@Moo@@XZ ; ConstSmartPointer<Moo::AnimationChannel>::operator Moo::AnimationChannel const * ConstSmartPointer<Moo::AnimationChannel>::*
  000c6	83 f8 ff	 cmp	 eax, -1
  000c9	74 77		 je	 SHORT $LN4@addChannel
  000cb	8d 85 fc fe ff
	ff		 lea	 eax, DWORD PTR $T144234[ebp]
  000d1	50		 push	 eax
  000d2	8b 4d 08	 mov	 ecx, DWORD PTR _binder$[ebp]
  000d5	e8 00 00 00 00	 call	 ?channel@ChannelBinder@Moo@@QBE?AV?$SmartPointer@VAnimationChannel@Moo@@@@XZ ; Moo::ChannelBinder::channel
  000da	89 85 d4 fe ff
	ff		 mov	 DWORD PTR tv159[ebp], eax
  000e0	8b 8d d4 fe ff
	ff		 mov	 ecx, DWORD PTR tv159[ebp]
  000e6	89 8d d0 fe ff
	ff		 mov	 DWORD PTR tv151[ebp], ecx
  000ec	c7 45 fc 02 00
	00 00		 mov	 DWORD PTR __$EHRec$[ebp+8], 2
  000f3	8b 95 14 ff ff
	ff		 mov	 edx, DWORD PTR $T144239[ebp]
  000f9	83 ca 02	 or	 edx, 2
  000fc	89 95 14 ff ff
	ff		 mov	 DWORD PTR $T144239[ebp], edx
  00102	8b 8d d0 fe ff
	ff		 mov	 ecx, DWORD PTR tv151[ebp]
  00108	e8 00 00 00 00	 call	 ??C?$SmartPointer@VAnimationChannel@Moo@@@@QBEPAVAnimationChannel@Moo@@XZ ; SmartPointer<Moo::AnimationChannel>::operator->
  0010d	89 85 cc fe ff
	ff		 mov	 DWORD PTR tv91[ebp], eax
  00113	8b 85 cc fe ff
	ff		 mov	 eax, DWORD PTR tv91[ebp]
  00119	8b 10		 mov	 edx, DWORD PTR [eax]
  0011b	8b f4		 mov	 esi, esp
  0011d	8b 8d cc fe ff
	ff		 mov	 ecx, DWORD PTR tv91[ebp]
  00123	8b 42 14	 mov	 eax, DWORD PTR [edx+20]
  00126	ff d0		 call	 eax
  00128	3b f4		 cmp	 esi, esp
  0012a	e8 00 00 00 00	 call	 __RTC_CheckEsp
  0012f	0f b6 c8	 movzx	 ecx, al
  00132	85 c9		 test	 ecx, ecx
  00134	74 0c		 je	 SHORT $LN4@addChannel
  00136	c7 85 c8 fe ff
	ff 01 00 00 00	 mov	 DWORD PTR tv129[ebp], 1
  00140	eb 0a		 jmp	 SHORT $LN5@addChannel
$LN4@addChannel:
  00142	c7 85 c8 fe ff
	ff 00 00 00 00	 mov	 DWORD PTR tv129[ebp], 0
$LN5@addChannel:
  0014c	8a 95 c8 fe ff
	ff		 mov	 dl, BYTE PTR tv129[ebp]
  00152	88 95 e7 fe ff
	ff		 mov	 BYTE PTR $T144232[ebp], dl
  00158	c7 45 fc 01 00
	00 00		 mov	 DWORD PTR __$EHRec$[ebp+8], 1
  0015f	8b 85 14 ff ff
	ff		 mov	 eax, DWORD PTR $T144239[ebp]
  00165	83 e0 02	 and	 eax, 2
  00168	74 12		 je	 SHORT $LN11@addChannel
  0016a	83 a5 14 ff ff
	ff fd		 and	 DWORD PTR $T144239[ebp], -3 ; fffffffdH
  00171	8d 8d fc fe ff
	ff		 lea	 ecx, DWORD PTR $T144234[ebp]
  00177	e8 00 00 00 00	 call	 ??1?$SmartPointer@VAnimationChannel@Moo@@@@QAE@XZ
$LN11@addChannel:
  0017c	c7 45 fc 00 00
	00 00		 mov	 DWORD PTR __$EHRec$[ebp+8], 0
  00183	8b 8d 14 ff ff
	ff		 mov	 ecx, DWORD PTR $T144239[ebp]
  00189	83 e1 01	 and	 ecx, 1
  0018c	74 12		 je	 SHORT $LN12@addChannel
  0018e	83 a5 14 ff ff
	ff fe		 and	 DWORD PTR $T144239[ebp], -2 ; fffffffeH
  00195	8d 8d f0 fe ff
	ff		 lea	 ecx, DWORD PTR $T144233[ebp]
  0019b	e8 00 00 00 00	 call	 ??1?$SmartPointer@VAnimationChannel@Moo@@@@QAE@XZ
$LN12@addChannel:
  001a0	0f b6 95 e7 fe
	ff ff		 movzx	 edx, BYTE PTR $T144232[ebp]
  001a7	85 d2		 test	 edx, edx
  001a9	74 46		 je	 SHORT $LN1@addChannel
; Line 159
  001ab	8d 85 08 ff ff
	ff		 lea	 eax, DWORD PTR $T144237[ebp]
  001b1	50		 push	 eax
  001b2	8b 4d 08	 mov	 ecx, DWORD PTR _binder$[ebp]
  001b5	e8 00 00 00 00	 call	 ?channel@ChannelBinder@Moo@@QBE?AV?$SmartPointer@VAnimationChannel@Moo@@@@XZ ; Moo::ChannelBinder::channel
  001ba	89 85 dc fe ff
	ff		 mov	 DWORD PTR tv161[ebp], eax
  001c0	8b 8d dc fe ff
	ff		 mov	 ecx, DWORD PTR tv161[ebp]
  001c6	89 8d d8 fe ff
	ff		 mov	 DWORD PTR tv157[ebp], ecx
  001cc	c6 45 fc 03	 mov	 BYTE PTR __$EHRec$[ebp+8], 3
  001d0	8b 95 d8 fe ff
	ff		 mov	 edx, DWORD PTR tv157[ebp]
  001d6	52		 push	 edx
  001d7	8b 4d ec	 mov	 ecx, DWORD PTR _this$[ebp]
  001da	83 c1 6c	 add	 ecx, 108		; 0000006cH
  001dd	e8 00 00 00 00	 call	 ?push_back@?$vector@V?$SmartPointer@VAnimationChannel@Moo@@@@V?$allocator@V?$SmartPointer@VAnimationChannel@Moo@@@@@std@@@std@@QAEXABV?$SmartPointer@VAnimationChannel@Moo@@@@@Z ; std::vector<SmartPointer<Moo::AnimationChannel>,std::allocator<SmartPointer<Moo::AnimationChannel> > >::push_back
  001e2	c6 45 fc 00	 mov	 BYTE PTR __$EHRec$[ebp+8], 0
  001e6	8d 8d 08 ff ff
	ff		 lea	 ecx, DWORD PTR $T144237[ebp]
  001ec	e8 00 00 00 00	 call	 ??1?$SmartPointer@VAnimationChannel@Moo@@@@QAE@XZ
$LN1@addChannel:
; Line 160
  001f1	c7 45 fc ff ff
	ff ff		 mov	 DWORD PTR __$EHRec$[ebp+8], -1
  001f8	8d 4d e3	 lea	 ecx, DWORD PTR __BW_GUARD$[ebp]
  001fb	e8 00 00 00 00	 call	 ??1ScopedStackTrack@@QAE@XZ ; ScopedStackTrack::~ScopedStackTrack
  00200	52		 push	 edx
  00201	8b cd		 mov	 ecx, ebp
  00203	50		 push	 eax
  00204	8d 15 00 00 00
	00		 lea	 edx, DWORD PTR $LN17@addChannel
  0020a	e8 00 00 00 00	 call	 @_RTC_CheckStackVars@8
  0020f	58		 pop	 eax
  00210	5a		 pop	 edx
  00211	8b 4d f4	 mov	 ecx, DWORD PTR __$EHRec$[ebp]
  00214	64 89 0d 00 00
	00 00		 mov	 DWORD PTR fs:0, ecx
  0021b	59		 pop	 ecx
  0021c	5f		 pop	 edi
  0021d	5e		 pop	 esi
  0021e	5b		 pop	 ebx
  0021f	81 c4 38 01 00
	00		 add	 esp, 312		; 00000138H
  00225	3b ec		 cmp	 ebp, esp
  00227	e8 00 00 00 00	 call	 __RTC_CheckEsp
  0022c	8b e5		 mov	 esp, ebp
  0022e	5d		 pop	 ebp
  0022f	c2 04 00	 ret	 4
  00232	8b ff		 npad	 2
$LN17@addChannel:
  00234	01 00 00 00	 DD	 1
  00238	00 00 00 00	 DD	 $LN16@addChannel
$LN16@addChannel:
  0023c	e3 ff ff ff	 DD	 -29			; ffffffe3H
  00240	01 00 00 00	 DD	 1
  00244	00 00 00 00	 DD	 $LN14@addChannel
$LN14@addChannel:
  00248	5f		 DB	 95			; 0000005fH
  00249	42		 DB	 66			; 00000042H
  0024a	57		 DB	 87			; 00000057H
  0024b	5f		 DB	 95			; 0000005fH
  0024c	47		 DB	 71			; 00000047H
  0024d	55		 DB	 85			; 00000055H
  0024e	41		 DB	 65			; 00000041H
  0024f	52		 DB	 82			; 00000052H
  00250	44		 DB	 68			; 00000044H
  00251	00		 DB	 0
_TEXT	ENDS
;	COMDAT text$x
text$x	SEGMENT
__unwindfunclet$?addChannelBinder@Animation@Moo@@QAEXABVChannelBinder@2@@Z$0:
  00000	8d 4d e3	 lea	 ecx, DWORD PTR __BW_GUARD$[ebp]
  00003	e9 00 00 00 00	 jmp	 ??1ScopedStackTrack@@QAE@XZ ; ScopedStackTrack::~ScopedStackTrack
__unwindfunclet$?addChannelBinder@Animation@Moo@@QAEXABVChannelBinder@2@@Z$1:
  00008	8b 85 14 ff ff
	ff		 mov	 eax, DWORD PTR $T144239[ebp]
  0000e	83 e0 01	 and	 eax, 1
  00011	0f 84 12 00 00
	00		 je	 $LN8@addChannel
  00017	83 a5 14 ff ff
	ff fe		 and	 DWORD PTR $T144239[ebp], -2 ; fffffffeH
  0001e	8d 8d f0 fe ff
	ff		 lea	 ecx, DWORD PTR $T144233[ebp]
  00024	e9 00 00 00 00	 jmp	 ??1?$SmartPointer@VAnimationChannel@Moo@@@@QAE@XZ
$LN8@addChannel:
  00029	c3		 ret	 0
__unwindfunclet$?addChannelBinder@Animation@Moo@@QAEXABVChannelBinder@2@@Z$2:
  0002a	8b 85 14 ff ff
	ff		 mov	 eax, DWORD PTR $T144239[ebp]
  00030	83 e0 02	 and	 eax, 2
  00033	0f 84 12 00 00
	00		 je	 $LN10@addChannel
  00039	83 a5 14 ff ff
	ff fd		 and	 DWORD PTR $T144239[ebp], -3 ; fffffffdH
  00040	8d 8d fc fe ff
	ff		 lea	 ecx, DWORD PTR $T144234[ebp]
  00046	e9 00 00 00 00	 jmp	 ??1?$SmartPointer@VAnimationChannel@Moo@@@@QAE@XZ
$LN10@addChannel:
  0004b	c3		 ret	 0
__unwindfunclet$?addChannelBinder@Animation@Moo@@QAEXABVChannelBinder@2@@Z$3:
  0004c	8d 8d 08 ff ff
	ff		 lea	 ecx, DWORD PTR $T144237[ebp]
  00052	e9 00 00 00 00	 jmp	 ??1?$SmartPointer@VAnimationChannel@Moo@@@@QAE@XZ
__ehhandler$?addChannelBinder@Animation@Moo@@QAEXABVChannelBinder@2@@Z:
  00057	8b 54 24 08	 mov	 edx, DWORD PTR [esp+8]
  0005b	8d 42 0c	 lea	 eax, DWORD PTR [edx+12]
  0005e	8b 8a c4 fe ff
	ff		 mov	 ecx, DWORD PTR [edx-316]
  00064	33 c8		 xor	 ecx, eax
  00066	e8 00 00 00 00	 call	 @__security_check_cookie@4
  0006b	b8 00 00 00 00	 mov	 eax, OFFSET __ehfuncinfo$?addChannelBinder@Animation@Moo@@QAEXABVChannelBinder@2@@Z
  00070	e9 00 00 00 00	 jmp	 ___CxxFrameHandler3
text$x	ENDS
?addChannelBinder@Animation@Moo@@QAEXABVChannelBinder@2@@Z ENDP ; Moo::Animation::addChannelBinder
PUBLIC	??1?$_Vector_const_iterator@VChannelBinder@Moo@@V?$allocator@VChannelBinder@Moo@@@std@@@std@@QAE@XZ ; std::_Vector_const_iterator<Moo::ChannelBinder,std::allocator<Moo::ChannelBinder> >::~_Vector_const_iterator<Moo::ChannelBinder,std::allocator<Moo::ChannelBinder> >
PUBLIC	??E?$_Vector_const_iterator@VChannelBinder@Moo@@V?$allocator@VChannelBinder@Moo@@@std@@@std@@QAEAAV01@XZ ; std::_Vector_const_iterator<Moo::ChannelBinder,std::allocator<Moo::ChannelBinder> >::operator++
PUBLIC	?animate@ChannelBinder@Moo@@QBEXM@Z		; Moo::ChannelBinder::animate
PUBLIC	??C?$_Vector_const_iterator@VChannelBinder@Moo@@V?$allocator@VChannelBinder@Moo@@@std@@@std@@QBEPBVChannelBinder@Moo@@XZ ; std::_Vector_const_iterator<Moo::ChannelBinder,std::allocator<Moo::ChannelBinder> >::operator->
PUBLIC	??9?$_Vector_const_iterator@VChannelBinder@Moo@@V?$allocator@VChannelBinder@Moo@@@std@@@std@@QBE_NABV01@@Z ; std::_Vector_const_iterator<Moo::ChannelBinder,std::allocator<Moo::ChannelBinder> >::operator!=
PUBLIC	?end@?$vector@VChannelBinder@Moo@@V?$allocator@VChannelBinder@Moo@@@std@@@std@@QBE?AV?$_Vector_const_iterator@VChannelBinder@Moo@@V?$allocator@VChannelBinder@Moo@@@std@@@2@XZ ; std::vector<Moo::ChannelBinder,std::allocator<Moo::ChannelBinder> >::end
PUBLIC	?begin@?$vector@VChannelBinder@Moo@@V?$allocator@VChannelBinder@Moo@@@std@@@std@@QBE?AV?$_Vector_const_iterator@VChannelBinder@Moo@@V?$allocator@VChannelBinder@Moo@@@std@@@2@XZ ; std::vector<Moo::ChannelBinder,std::allocator<Moo::ChannelBinder> >::begin
PUBLIC	??_C@_0BI@FHKHAKB@Moo?3?3Animation?3?3animate?$AA@ ; `string'
PUBLIC	?__LINE__Var@?1??animate@Animation@Moo@@QBEXM@Z@4JA ; `Moo::Animation::animate'::`2'::__LINE__Var
PUBLIC	?animate@Animation@Moo@@QBEXM@Z			; Moo::Animation::animate
;	COMDAT ??_C@_0BI@FHKHAKB@Moo?3?3Animation?3?3animate?$AA@
CONST	SEGMENT
??_C@_0BI@FHKHAKB@Moo?3?3Animation?3?3animate?$AA@ DB 'Moo::Animation::an'
	DB	'imate', 00H					; `string'
CONST	ENDS
;	COMDAT ?__LINE__Var@?1??animate@Animation@Moo@@QBEXM@Z@4JA
_DATA	SEGMENT
?__LINE__Var@?1??animate@Animation@Moo@@QBEXM@Z@4JA DD 0a7H ; `Moo::Animation::animate'::`2'::__LINE__Var
_DATA	ENDS
;	COMDAT xdata$x
xdata$x	SEGMENT
__unwindtable$?animate@Animation@Moo@@QBEXM@Z DD 0ffffffffH
	DD	FLAT:__unwindfunclet$?animate@Animation@Moo@@QBEXM@Z$0
	DD	00H
	DD	FLAT:__unwindfunclet$?animate@Animation@Moo@@QBEXM@Z$1
	DD	01H
	DD	FLAT:__unwindfunclet$?animate@Animation@Moo@@QBEXM@Z$2
__ehfuncinfo$?animate@Animation@Moo@@QBEXM@Z DD 019930522H
	DD	03H
	DD	FLAT:__unwindtable$?animate@Animation@Moo@@QBEXM@Z
	DD	2 DUP(00H)
	DD	2 DUP(00H)
	DD	00H
	DD	01H
; Function compile flags: /Odtp /RTCsu /ZI
xdata$x	ENDS
;	COMDAT ?animate@Animation@Moo@@QBEXM@Z
_TEXT	SEGMENT
_end$ = -72						; size = 12
_it$ = -52						; size = 12
__BW_GUARD$ = -29					; size = 1
_this$ = -20						; size = 4
__$EHRec$ = -12						; size = 12
_time$ = 8						; size = 4
?animate@Animation@Moo@@QBEXM@Z PROC			; Moo::Animation::animate, COMDAT
; _this$ = ecx
; Line 167
  00000	55		 push	 ebp
  00001	8b ec		 mov	 ebp, esp
  00003	6a ff		 push	 -1
  00005	68 00 00 00 00	 push	 __ehhandler$?animate@Animation@Moo@@QBEXM@Z
  0000a	64 a1 00 00 00
	00		 mov	 eax, DWORD PTR fs:0
  00010	50		 push	 eax
  00011	81 ec 00 01 00
	00		 sub	 esp, 256		; 00000100H
  00017	53		 push	 ebx
  00018	56		 push	 esi
  00019	57		 push	 edi
  0001a	51		 push	 ecx
  0001b	8d bd f4 fe ff
	ff		 lea	 edi, DWORD PTR [ebp-268]
  00021	b9 40 00 00 00	 mov	 ecx, 64			; 00000040H
  00026	b8 cc cc cc cc	 mov	 eax, -858993460		; ccccccccH
  0002b	f3 ab		 rep stosd
  0002d	59		 pop	 ecx
  0002e	a1 00 00 00 00	 mov	 eax, DWORD PTR ___security_cookie
  00033	33 c5		 xor	 eax, ebp
  00035	50		 push	 eax
  00036	8d 45 f4	 lea	 eax, DWORD PTR __$EHRec$[ebp]
  00039	64 a3 00 00 00
	00		 mov	 DWORD PTR fs:0, eax
  0003f	89 4d ec	 mov	 DWORD PTR _this$[ebp], ecx
; Line 168
  00042	a1 00 00 00 00	 mov	 eax, DWORD PTR ?__LINE__Var@?1??animate@Animation@Moo@@QBEXM@Z@4JA
  00047	83 c0 01	 add	 eax, 1
  0004a	50		 push	 eax
  0004b	68 00 00 00 00	 push	 OFFSET ??_C@_0CD@PMFAICH@e?3?2bw191?2src?2lib?2moo?2animation?4c@
  00050	68 00 00 00 00	 push	 OFFSET ??_C@_0BI@FHKHAKB@Moo?3?3Animation?3?3animate?$AA@
  00055	8d 4d e3	 lea	 ecx, DWORD PTR __BW_GUARD$[ebp]
  00058	e8 00 00 00 00	 call	 ??0ScopedStackTrack@@QAE@PBD0I@Z ; ScopedStackTrack::ScopedStackTrack
  0005d	c7 45 fc 00 00
	00 00		 mov	 DWORD PTR __$EHRec$[ebp+8], 0
; Line 169
  00064	8d 45 cc	 lea	 eax, DWORD PTR _it$[ebp]
  00067	50		 push	 eax
  00068	8b 4d ec	 mov	 ecx, DWORD PTR _this$[ebp]
  0006b	83 c1 0c	 add	 ecx, 12			; 0000000cH
  0006e	e8 00 00 00 00	 call	 ?begin@?$vector@VChannelBinder@Moo@@V?$allocator@VChannelBinder@Moo@@@std@@@std@@QBE?AV?$_Vector_const_iterator@VChannelBinder@Moo@@V?$allocator@VChannelBinder@Moo@@@std@@@2@XZ ; std::vector<Moo::ChannelBinder,std::allocator<Moo::ChannelBinder> >::begin
  00073	c6 45 fc 01	 mov	 BYTE PTR __$EHRec$[ebp+8], 1
; Line 170
  00077	8d 45 b8	 lea	 eax, DWORD PTR _end$[ebp]
  0007a	50		 push	 eax
  0007b	8b 4d ec	 mov	 ecx, DWORD PTR _this$[ebp]
  0007e	83 c1 0c	 add	 ecx, 12			; 0000000cH
  00081	e8 00 00 00 00	 call	 ?end@?$vector@VChannelBinder@Moo@@V?$allocator@VChannelBinder@Moo@@@std@@@std@@QBE?AV?$_Vector_const_iterator@VChannelBinder@Moo@@V?$allocator@VChannelBinder@Moo@@@std@@@2@XZ ; std::vector<Moo::ChannelBinder,std::allocator<Moo::ChannelBinder> >::end
  00086	c6 45 fc 02	 mov	 BYTE PTR __$EHRec$[ebp+8], 2
$LN2@animate:
; Line 172
  0008a	8d 45 b8	 lea	 eax, DWORD PTR _end$[ebp]
  0008d	50		 push	 eax
  0008e	8d 4d cc	 lea	 ecx, DWORD PTR _it$[ebp]
  00091	e8 00 00 00 00	 call	 ??9?$_Vector_const_iterator@VChannelBinder@Moo@@V?$allocator@VChannelBinder@Moo@@@std@@@std@@QBE_NABV01@@Z ; std::_Vector_const_iterator<Moo::ChannelBinder,std::allocator<Moo::ChannelBinder> >::operator!=
  00096	0f b6 c8	 movzx	 ecx, al
  00099	85 c9		 test	 ecx, ecx
  0009b	74 20		 je	 SHORT $LN1@animate
; Line 174
  0009d	51		 push	 ecx
  0009e	d9 45 08	 fld	 DWORD PTR _time$[ebp]
  000a1	d9 1c 24	 fstp	 DWORD PTR [esp]
  000a4	8d 4d cc	 lea	 ecx, DWORD PTR _it$[ebp]
  000a7	e8 00 00 00 00	 call	 ??C?$_Vector_const_iterator@VChannelBinder@Moo@@V?$allocator@VChannelBinder@Moo@@@std@@@std@@QBEPBVChannelBinder@Moo@@XZ ; std::_Vector_const_iterator<Moo::ChannelBinder,std::allocator<Moo::ChannelBinder> >::operator->
  000ac	8b c8		 mov	 ecx, eax
  000ae	e8 00 00 00 00	 call	 ?animate@ChannelBinder@Moo@@QBEXM@Z ; Moo::ChannelBinder::animate
; Line 175
  000b3	8d 4d cc	 lea	 ecx, DWORD PTR _it$[ebp]
  000b6	e8 00 00 00 00	 call	 ??E?$_Vector_const_iterator@VChannelBinder@Moo@@V?$allocator@VChannelBinder@Moo@@@std@@@std@@QAEAAV01@XZ ; std::_Vector_const_iterator<Moo::ChannelBinder,std::allocator<Moo::ChannelBinder> >::operator++
; Line 176
  000bb	eb cd		 jmp	 SHORT $LN2@animate
$LN1@animate:
; Line 177
  000bd	c6 45 fc 01	 mov	 BYTE PTR __$EHRec$[ebp+8], 1
  000c1	8d 4d b8	 lea	 ecx, DWORD PTR _end$[ebp]
  000c4	e8 00 00 00 00	 call	 ??1?$_Vector_const_iterator@VChannelBinder@Moo@@V?$allocator@VChannelBinder@Moo@@@std@@@std@@QAE@XZ
  000c9	c6 45 fc 00	 mov	 BYTE PTR __$EHRec$[ebp+8], 0
  000cd	8d 4d cc	 lea	 ecx, DWORD PTR _it$[ebp]
  000d0	e8 00 00 00 00	 call	 ??1?$_Vector_const_iterator@VChannelBinder@Moo@@V?$allocator@VChannelBinder@Moo@@@std@@@std@@QAE@XZ
  000d5	c7 45 fc ff ff
	ff ff		 mov	 DWORD PTR __$EHRec$[ebp+8], -1
  000dc	8d 4d e3	 lea	 ecx, DWORD PTR __BW_GUARD$[ebp]
  000df	e8 00 00 00 00	 call	 ??1ScopedStackTrack@@QAE@XZ ; ScopedStackTrack::~ScopedStackTrack
  000e4	52		 push	 edx
  000e5	8b cd		 mov	 ecx, ebp
  000e7	50		 push	 eax
  000e8	8d 15 00 00 00
	00		 lea	 edx, DWORD PTR $LN13@animate
  000ee	e8 00 00 00 00	 call	 @_RTC_CheckStackVars@8
  000f3	58		 pop	 eax
  000f4	5a		 pop	 edx
  000f5	8b 4d f4	 mov	 ecx, DWORD PTR __$EHRec$[ebp]
  000f8	64 89 0d 00 00
	00 00		 mov	 DWORD PTR fs:0, ecx
  000ff	59		 pop	 ecx
  00100	5f		 pop	 edi
  00101	5e		 pop	 esi
  00102	5b		 pop	 ebx
  00103	81 c4 0c 01 00
	00		 add	 esp, 268		; 0000010cH
  00109	3b ec		 cmp	 ebp, esp
  0010b	e8 00 00 00 00	 call	 __RTC_CheckEsp
  00110	8b e5		 mov	 esp, ebp
  00112	5d		 pop	 ebp
  00113	c2 04 00	 ret	 4
  00116	8b ff		 npad	 2
$LN13@animate:
  00118	03 00 00 00	 DD	 3
  0011c	00 00 00 00	 DD	 $LN12@animate
$LN12@animate:
  00120	e3 ff ff ff	 DD	 -29			; ffffffe3H
  00124	01 00 00 00	 DD	 1
  00128	00 00 00 00	 DD	 $LN8@animate
  0012c	cc ff ff ff	 DD	 -52			; ffffffccH
  00130	0c 00 00 00	 DD	 12			; 0000000cH
  00134	00 00 00 00	 DD	 $LN9@animate
  00138	b8 ff ff ff	 DD	 -72			; ffffffb8H
  0013c	0c 00 00 00	 DD	 12			; 0000000cH
  00140	00 00 00 00	 DD	 $LN10@animate
$LN10@animate:
  00144	65		 DB	 101			; 00000065H
  00145	6e		 DB	 110			; 0000006eH
  00146	64		 DB	 100			; 00000064H
  00147	00		 DB	 0
$LN9@animate:
  00148	69		 DB	 105			; 00000069H
  00149	74		 DB	 116			; 00000074H
  0014a	00		 DB	 0
$LN8@animate:
  0014b	5f		 DB	 95			; 0000005fH
  0014c	42		 DB	 66			; 00000042H
  0014d	57		 DB	 87			; 00000057H
  0014e	5f		 DB	 95			; 0000005fH
  0014f	47		 DB	 71			; 00000047H
  00150	55		 DB	 85			; 00000055H
  00151	41		 DB	 65			; 00000041H
  00152	52		 DB	 82			; 00000052H
  00153	44		 DB	 68			; 00000044H
  00154	00		 DB	 0
_TEXT	ENDS
;	COMDAT text$x
text$x	SEGMENT
__unwindfunclet$?animate@Animation@Moo@@QBEXM@Z$0:
  00000	8d 4d e3	 lea	 ecx, DWORD PTR __BW_GUARD$[ebp]
  00003	e9 00 00 00 00	 jmp	 ??1ScopedStackTrack@@QAE@XZ ; ScopedStackTrack::~ScopedStackTrack
__unwindfunclet$?animate@Animation@Moo@@QBEXM@Z$1:
  00008	8d 4d cc	 lea	 ecx, DWORD PTR _it$[ebp]
  0000b	e9 00 00 00 00	 jmp	 ??1?$_Vector_const_iterator@VChannelBinder@Moo@@V?$allocator@VChannelBinder@Moo@@@std@@@std@@QAE@XZ
__unwindfunclet$?animate@Animation@Moo@@QBEXM@Z$2:
  00010	8d 4d b8	 lea	 ecx, DWORD PTR _end$[ebp]
  00013	e9 00 00 00 00	 jmp	 ??1?$_Vector_const_iterator@VChannelBinder@Moo@@V?$allocator@VChannelBinder@Moo@@@std@@@std@@QAE@XZ
__ehhandler$?animate@Animation@Moo@@QBEXM@Z:
  00018	8b 54 24 08	 mov	 edx, DWORD PTR [esp+8]
  0001c	8d 42 0c	 lea	 eax, DWORD PTR [edx+12]
  0001f	8b 8a f0 fe ff
	ff		 mov	 ecx, DWORD PTR [edx-272]
  00025	33 c8		 xor	 ecx, eax
  00027	e8 00 00 00 00	 call	 @__security_check_cookie@4
  0002c	b8 00 00 00 00	 mov	 eax, OFFSET __ehfuncinfo$?animate@Animation@Moo@@QBEXM@Z
  00031	e9 00 00 00 00	 jmp	 ___CxxFrameHandler3
text$x	ENDS
?animate@Animation@Moo@@QBEXM@Z ENDP			; Moo::Animation::animate
PUBLIC	__real@3f800000
EXTRN	?transform@Node@Moo@@QAEAAVMatrix@@XZ:PROC	; Moo::Node::transform
;	COMDAT __real@3f800000
; File e:\bw191\src\lib\moo\animation_channel.hpp
CONST	SEGMENT
__real@3f800000 DD 03f800000r			; 1
; Function compile flags: /Odtp /RTCsu /ZI
CONST	ENDS
;	COMDAT ?animate@ChannelBinder@Moo@@QBEXM@Z
_TEXT	SEGMENT
tv88 = -208						; size = 4
tv75 = -208						; size = 4
_this$ = -8						; size = 4
_time$ = 8						; size = 4
?animate@ChannelBinder@Moo@@QBEXM@Z PROC		; Moo::ChannelBinder::animate, COMDAT
; _this$ = ecx
; Line 120
  00000	55		 push	 ebp
  00001	8b ec		 mov	 ebp, esp
  00003	81 ec d0 00 00
	00		 sub	 esp, 208		; 000000d0H
  00009	53		 push	 ebx
  0000a	56		 push	 esi
  0000b	57		 push	 edi
  0000c	51		 push	 ecx
  0000d	8d bd 30 ff ff
	ff		 lea	 edi, DWORD PTR [ebp-208]
  00013	b9 34 00 00 00	 mov	 ecx, 52			; 00000034H
  00018	b8 cc cc cc cc	 mov	 eax, -858993460		; ccccccccH
  0001d	f3 ab		 rep stosd
  0001f	59		 pop	 ecx
  00020	89 4d f8	 mov	 DWORD PTR _this$[ebp], ecx
; Line 121
  00023	8b 4d f8	 mov	 ecx, DWORD PTR _this$[ebp]
  00026	e8 00 00 00 00	 call	 ??B?$ConstSmartPointer@VAnimationChannel@Moo@@@@QBEPQ0@PBVAnimationChannel@Moo@@XZ ; ConstSmartPointer<Moo::AnimationChannel>::operator Moo::AnimationChannel const * ConstSmartPointer<Moo::AnimationChannel>::*
  0002b	83 f8 ff	 cmp	 eax, -1
  0002e	75 05		 jne	 SHORT $LN3@animate@2
  00030	e9 8d 00 00 00	 jmp	 $LN4@animate@2
$LN3@animate@2:
; Line 122
  00035	8b 4d f8	 mov	 ecx, DWORD PTR _this$[ebp]
  00038	83 c1 04	 add	 ecx, 4
  0003b	e8 00 00 00 00	 call	 ??B?$ConstSmartPointer@VNode@Moo@@@@QBEPQ0@PBVNode@Moo@@XZ ; ConstSmartPointer<Moo::Node>::operator Moo::Node const * ConstSmartPointer<Moo::Node>::*
  00040	83 f8 ff	 cmp	 eax, -1
  00043	74 46		 je	 SHORT $LN2@animate@2
; Line 124
  00045	8b 4d f8	 mov	 ecx, DWORD PTR _this$[ebp]
  00048	e8 00 00 00 00	 call	 ??C?$SmartPointer@VAnimationChannel@Moo@@@@QBEPAVAnimationChannel@Moo@@XZ ; SmartPointer<Moo::AnimationChannel>::operator->
  0004d	89 85 30 ff ff
	ff		 mov	 DWORD PTR tv75[ebp], eax
  00053	8b 4d f8	 mov	 ecx, DWORD PTR _this$[ebp]
  00056	83 c1 04	 add	 ecx, 4
  00059	e8 00 00 00 00	 call	 ??C?$SmartPointer@VNode@Moo@@@@QBEPAVNode@Moo@@XZ ; SmartPointer<Moo::Node>::operator->
  0005e	8b c8		 mov	 ecx, eax
  00060	e8 00 00 00 00	 call	 ?transform@Node@Moo@@QAEAAVMatrix@@XZ ; Moo::Node::transform
  00065	8b f4		 mov	 esi, esp
  00067	50		 push	 eax
  00068	51		 push	 ecx
  00069	d9 45 08	 fld	 DWORD PTR _time$[ebp]
  0006c	d9 1c 24	 fstp	 DWORD PTR [esp]
  0006f	8b 85 30 ff ff
	ff		 mov	 eax, DWORD PTR tv75[ebp]
  00075	8b 10		 mov	 edx, DWORD PTR [eax]
  00077	8b 8d 30 ff ff
	ff		 mov	 ecx, DWORD PTR tv75[ebp]
  0007d	8b 42 08	 mov	 eax, DWORD PTR [edx+8]
  00080	ff d0		 call	 eax
  00082	3b f4		 cmp	 esi, esp
  00084	e8 00 00 00 00	 call	 __RTC_CheckEsp
; Line 126
  00089	eb 37		 jmp	 SHORT $LN1@animate@2
$LN2@animate@2:
; Line 128
  0008b	8b 4d f8	 mov	 ecx, DWORD PTR _this$[ebp]
  0008e	e8 00 00 00 00	 call	 ??C?$SmartPointer@VAnimationChannel@Moo@@@@QBEPAVAnimationChannel@Moo@@XZ ; SmartPointer<Moo::AnimationChannel>::operator->
  00093	89 85 30 ff ff
	ff		 mov	 DWORD PTR tv88[ebp], eax
  00099	8b f4		 mov	 esi, esp
  0009b	51		 push	 ecx
  0009c	d9 e8		 fld1
  0009e	d9 1c 24	 fstp	 DWORD PTR [esp]
  000a1	51		 push	 ecx
  000a2	d9 45 08	 fld	 DWORD PTR _time$[ebp]
  000a5	d9 1c 24	 fstp	 DWORD PTR [esp]
  000a8	8b 85 30 ff ff
	ff		 mov	 eax, DWORD PTR tv88[ebp]
  000ae	8b 10		 mov	 edx, DWORD PTR [eax]
  000b0	8b 8d 30 ff ff
	ff		 mov	 ecx, DWORD PTR tv88[ebp]
  000b6	8b 42 10	 mov	 eax, DWORD PTR [edx+16]
  000b9	ff d0		 call	 eax
  000bb	3b f4		 cmp	 esi, esp
  000bd	e8 00 00 00 00	 call	 __RTC_CheckEsp
$LN1@animate@2:
$LN4@animate@2:
; Line 130
  000c2	5f		 pop	 edi
  000c3	5e		 pop	 esi
  000c4	5b		 pop	 ebx
  000c5	81 c4 d0 00 00
	00		 add	 esp, 208		; 000000d0H
  000cb	3b ec		 cmp	 ebp, esp
  000cd	e8 00 00 00 00	 call	 __RTC_CheckEsp
  000d2	8b e5		 mov	 esp, ebp
  000d4	5d		 pop	 ebp
  000d5	c2 04 00	 ret	 4
?animate@ChannelBinder@Moo@@QBEXM@Z ENDP		; Moo::ChannelBinder::animate
_TEXT	ENDS
PUBLIC	??1?$_Ranit@VChannelBinder@Moo@@HPBV12@ABV12@@std@@QAE@XZ ; std::_Ranit<Moo::ChannelBinder,int,Moo::ChannelBinder const *,Moo::ChannelBinder const &>::~_Ranit<Moo::ChannelBinder,int,Moo::ChannelBinder const *,Moo::ChannelBinder const &>
; Function compile flags: /Odtp /RTCsu /ZI
;	COMDAT ??1?$_Vector_const_iterator@VChannelBinder@Moo@@V?$allocator@VChannelBinder@Moo@@@std@@@std@@QAE@XZ
_TEXT	SEGMENT
_this$ = -8						; size = 4
??1?$_Vector_const_iterator@VChannelBinder@Moo@@V?$allocator@VChannelBinder@Moo@@@std@@@std@@QAE@XZ PROC ; std::_Vector_const_iterator<Moo::ChannelBinder,std::allocator<Moo::ChannelBinder> >::~_Vector_const_iterator<Moo::ChannelBinder,std::allocator<Moo::ChannelBinder> >, COMDAT
; _this$ = ecx
  00000	55		 push	 ebp
  00001	8b ec		 mov	 ebp, esp
  00003	81 ec cc 00 00
	00		 sub	 esp, 204		; 000000ccH
  00009	53		 push	 ebx
  0000a	56		 push	 esi
  0000b	57		 push	 edi
  0000c	51		 push	 ecx
  0000d	8d bd 34 ff ff
	ff		 lea	 edi, DWORD PTR [ebp-204]
  00013	b9 33 00 00 00	 mov	 ecx, 51			; 00000033H
  00018	b8 cc cc cc cc	 mov	 eax, -858993460		; ccccccccH
  0001d	f3 ab		 rep stosd
  0001f	59		 pop	 ecx
  00020	89 4d f8	 mov	 DWORD PTR _this$[ebp], ecx
  00023	8b 4d f8	 mov	 ecx, DWORD PTR _this$[ebp]
  00026	e8 00 00 00 00	 call	 ??1?$_Ranit@VChannelBinder@Moo@@HPBV12@ABV12@@std@@QAE@XZ
  0002b	5f		 pop	 edi
  0002c	5e		 pop	 esi
  0002d	5b		 pop	 ebx
  0002e	81 c4 cc 00 00
	00		 add	 esp, 204		; 000000ccH
  00034	3b ec		 cmp	 ebp, esp
  00036	e8 00 00 00 00	 call	 __RTC_CheckEsp
  0003b	8b e5		 mov	 esp, ebp
  0003d	5d		 pop	 ebp
  0003e	c3		 ret	 0
??1?$_Vector_const_iterator@VChannelBinder@Moo@@V?$allocator@VChannelBinder@Moo@@@std@@@std@@QAE@XZ ENDP ; std::_Vector_const_iterator<Moo::ChannelBinder,std::allocator<Moo::ChannelBinder> >::~_Vector_const_iterator<Moo::ChannelBinder,std::allocator<Moo::ChannelBinder> >
; Function compile flags: /Odtp /RTCsu /ZI
_TEXT	ENDS
;	COMDAT ??1?$_Ranit@VChannelBinder@Moo@@HPBV12@ABV12@@std@@QAE@XZ
_TEXT	SEGMENT
_this$ = -8						; size = 4
??1?$_Ranit@VChannelBinder@Moo@@HPBV12@ABV12@@std@@QAE@XZ PROC ; std::_Ranit<Moo::ChannelBinder,int,Moo::ChannelBinder const *,Moo::ChannelBinder const &>::~_Ranit<Moo::ChannelBinder,int,Moo::ChannelBinder const *,Moo::ChannelBinder const &>, COMDAT
; _this$ = ecx
  00000	55		 push	 ebp
  00001	8b ec		 mov	 ebp, esp
  00003	81 ec cc 00 00
	00		 sub	 esp, 204		; 000000ccH
  00009	53		 push	 ebx
  0000a	56		 push	 esi
  0000b	57		 push	 edi
  0000c	51		 push	 ecx
  0000d	8d bd 34 ff ff
	ff		 lea	 edi, DWORD PTR [ebp-204]
  00013	b9 33 00 00 00	 mov	 ecx, 51			; 00000033H
  00018	b8 cc cc cc cc	 mov	 eax, -858993460		; ccccccccH
  0001d	f3 ab		 rep stosd
  0001f	59		 pop	 ecx
  00020	89 4d f8	 mov	 DWORD PTR _this$[ebp], ecx
  00023	8b 4d f8	 mov	 ecx, DWORD PTR _this$[ebp]
  00026	e8 00 00 00 00	 call	 ??1_Iterator_base@std@@QAE@XZ ; std::_Iterator_base::~_Iterator_base
  0002b	5f		 pop	 edi
  0002c	5e		 pop	 esi
  0002d	5b		 pop	 ebx
  0002e	81 c4 cc 00 00
	00		 add	 esp, 204		; 000000ccH
  00034	3b ec		 cmp	 ebp, esp
  00036	e8 00 00 00 00	 call	 __RTC_CheckEsp
  0003b	8b e5		 mov	 esp, ebp
  0003d	5d		 pop	 ebp
  0003e	c3		 ret	 0
??1?$_Ranit@VChannelBinder@Moo@@HPBV12@ABV12@@std@@QAE@XZ ENDP ; std::_Ranit<Moo::ChannelBinder,int,Moo::ChannelBinder const *,Moo::ChannelBinder const &>::~_Ranit<Moo::ChannelBinder,int,Moo::ChannelBinder const *,Moo::ChannelBinder const &>
_TEXT	ENDS
PUBLIC	??1BlendTransform@@QAE@XZ			; BlendTransform::~BlendTransform
PUBLIC	?blend@BlendTransform@@QAEXMABV1@@Z		; BlendTransform::blend
PUBLIC	?node@ChannelBinder@Moo@@QBE?AV?$SmartPointer@VNode@Moo@@@@XZ ; Moo::ChannelBinder::node
PUBLIC	??A?$vector@MV?$allocator@M@std@@@std@@QBEABMI@Z ; std::vector<float,std::allocator<float> >::operator[]
PUBLIC	?end@?$vector@VChannelBinder@Moo@@V?$allocator@VChannelBinder@Moo@@@std@@@std@@QAE?AV?$_Vector_iterator@VChannelBinder@Moo@@V?$allocator@VChannelBinder@Moo@@@std@@@2@XZ ; std::vector<Moo::ChannelBinder,std::allocator<Moo::ChannelBinder> >::end
PUBLIC	??1?$_Vector_iterator@VChannelBinder@Moo@@V?$allocator@VChannelBinder@Moo@@@std@@@std@@QAE@XZ ; std::_Vector_iterator<Moo::ChannelBinder,std::allocator<Moo::ChannelBinder> >::~_Vector_iterator<Moo::ChannelBinder,std::allocator<Moo::ChannelBinder> >
PUBLIC	??4?$_Vector_const_iterator@VChannelBinder@Moo@@V?$allocator@VChannelBinder@Moo@@@std@@@std@@QAEAAV01@ABV01@@Z ; std::_Vector_const_iterator<Moo::ChannelBinder,std::allocator<Moo::ChannelBinder> >::operator=
PUBLIC	?begin@?$vector@VChannelBinder@Moo@@V?$allocator@VChannelBinder@Moo@@@std@@@std@@QAE?AV?$_Vector_iterator@VChannelBinder@Moo@@V?$allocator@VChannelBinder@Moo@@@std@@@2@XZ ; std::vector<Moo::ChannelBinder,std::allocator<Moo::ChannelBinder> >::begin
PUBLIC	__real@0000000000000000
PUBLIC	??E?$_Vector_const_iterator@UBlendedAnimation@Moo@@V?$allocator@UBlendedAnimation@Moo@@@std@@@std@@QAEAAV01@XZ ; std::_Vector_const_iterator<Moo::BlendedAnimation,std::allocator<Moo::BlendedAnimation> >::operator++
PUBLIC	??0?$_Vector_const_iterator@UBlendedAnimation@Moo@@V?$allocator@UBlendedAnimation@Moo@@@std@@@std@@QAE@ABV01@@Z ; std::_Vector_const_iterator<Moo::BlendedAnimation,std::allocator<Moo::BlendedAnimation> >::_Vector_const_iterator<Moo::BlendedAnimation,std::allocator<Moo::BlendedAnimation> >
PUBLIC	??0?$_Vector_const_iterator@VChannelBinder@Moo@@V?$allocator@VChannelBinder@Moo@@@std@@@std@@QAE@XZ ; std::_Vector_const_iterator<Moo::ChannelBinder,std::allocator<Moo::ChannelBinder> >::_Vector_const_iterator<Moo::ChannelBinder,std::allocator<Moo::ChannelBinder> >
PUBLIC	??0BlendTransform@@QAE@XZ			; BlendTransform::BlendTransform
PUBLIC	??9?$_Vector_const_iterator@UBlendedAnimation@Moo@@V?$allocator@UBlendedAnimation@Moo@@@std@@@std@@QBE_NABV01@@Z ; std::_Vector_const_iterator<Moo::BlendedAnimation,std::allocator<Moo::BlendedAnimation> >::operator!=
PUBLIC	??C?$_Vector_const_iterator@UBlendedAnimation@Moo@@V?$allocator@UBlendedAnimation@Moo@@@std@@@std@@QBEPBUBlendedAnimation@Moo@@XZ ; std::_Vector_const_iterator<Moo::BlendedAnimation,std::allocator<Moo::BlendedAnimation> >::operator->
PUBLIC	??8?$_Vector_const_iterator@UBlendedAnimation@Moo@@V?$allocator@UBlendedAnimation@Moo@@@std@@@std@@QBE_NABV01@@Z ; std::_Vector_const_iterator<Moo::BlendedAnimation,std::allocator<Moo::BlendedAnimation> >::operator==
PUBLIC	??H?$_Vector_const_iterator@UBlendedAnimation@Moo@@V?$allocator@UBlendedAnimation@Moo@@@std@@@std@@QBE?AV01@H@Z ; std::_Vector_const_iterator<Moo::BlendedAnimation,std::allocator<Moo::BlendedAnimation> >::operator+
PUBLIC	?__LINE__Var@?1??animate@Animation@Moo@@SAXV?$_Vector_const_iterator@UBlendedAnimation@Moo@@V?$allocator@UBlendedAnimation@Moo@@@std@@@std@@0@Z@4JA@c5f11349 ; `Moo::Animation::animate'::`2'::__LINE__Var
EXTRN	?blend@Node@Moo@@QAEXHM@Z:PROC			; Moo::Node::blend
EXTRN	?blendTransform@Node@Moo@@QAEAAVBlendTransform@@XZ:PROC ; Moo::Node::blendTransform
EXTRN	?blend@Node@Moo@@QAEMH@Z:PROC			; Moo::Node::blend
EXTRN	?s_blendCookie_@Node@Moo@@2HA:DWORD		; Moo::Node::s_blendCookie_
;	COMDAT __real@0000000000000000
; File e:\bw191\src\lib\moo\animation.cpp
CONST	SEGMENT
__real@0000000000000000 DQ 00000000000000000r	; 0
CONST	ENDS
;	COMDAT ?__LINE__Var@?1??animate@Animation@Moo@@SAXV?$_Vector_const_iterator@UBlendedAnimation@Moo@@V?$allocator@UBlendedAnimation@Moo@@@std@@@std@@0@Z@4JA@c5f11349
_DATA	SEGMENT
?__LINE__Var@?1??animate@Animation@Moo@@SAXV?$_Vector_const_iterator@UBlendedAnimation@Moo@@V?$allocator@UBlendedAnimation@Moo@@@std@@@std@@0@Z@4JA@c5f11349 DD 0e3H ; `Moo::Animation::animate'::`2'::__LINE__Var
_DATA	ENDS
;	COMDAT xdata$x
xdata$x	SEGMENT
__ehfuncinfo$?animate@Animation@Moo@@SAXV?$_Vector_const_iterator@UBlendedAnimation@Moo@@V?$allocator@UBlendedAnimation@Moo@@@std@@@std@@0@Z DD 019930522H
	DD	0dH
	DD	FLAT:__unwindtable$?animate@Animation@Moo@@SAXV?$_Vector_const_iterator@UBlendedAnimation@Moo@@V?$allocator@UBlendedAnimation@Moo@@@std@@@std@@0@Z
	DD	2 DUP(00H)
	DD	2 DUP(00H)
	DD	00H
	DD	01H
__unwindtable$?animate@Animation@Moo@@SAXV?$_Vector_const_iterator@UBlendedAnimation@Moo@@V?$allocator@UBlendedAnimation@Moo@@@std@@@std@@0@Z DD 0ffffffffH
	DD	FLAT:__unwindfunclet$?animate@Animation@Moo@@SAXV?$_Vector_const_iterator@UBlendedAnimation@Moo@@V?$allocator@UBlendedAnimation@Moo@@@std@@@std@@0@Z$0
	DD	00H
	DD	FLAT:__unwindfunclet$?animate@Animation@Moo@@SAXV?$_Vector_const_iterator@UBlendedAnimation@Moo@@V?$allocator@UBlendedAnimation@Moo@@@std@@@std@@0@Z$1
	DD	01H
	DD	FLAT:__unwindfunclet$?animate@Animation@Moo@@SAXV?$_Vector_const_iterator@UBlendedAnimation@Moo@@V?$allocator@UBlendedAnimation@Moo@@@std@@@std@@0@Z$2
	DD	02H
	DD	FLAT:__unwindfunclet$?animate@Animation@Moo@@SAXV?$_Vector_const_iterator@UBlendedAnimation@Moo@@V?$allocator@UBlendedAnimation@Moo@@@std@@@std@@0@Z$3
	DD	02H
	DD	FLAT:__unwindfunclet$?animate@Animation@Moo@@SAXV?$_Vector_const_iterator@UBlendedAnimation@Moo@@V?$allocator@UBlendedAnimation@Moo@@@std@@@std@@0@Z$4
	DD	04H
	DD	FLAT:__unwindfunclet$?animate@Animation@Moo@@SAXV?$_Vector_const_iterator@UBlendedAnimation@Moo@@V?$allocator@UBlendedAnimation@Moo@@@std@@@std@@0@Z$5
	DD	05H
	DD	FLAT:__unwindfunclet$?animate@Animation@Moo@@SAXV?$_Vector_const_iterator@UBlendedAnimation@Moo@@V?$allocator@UBlendedAnimation@Moo@@@std@@@std@@0@Z$6
	DD	06H
	DD	FLAT:__unwindfunclet$?animate@Animation@Moo@@SAXV?$_Vector_const_iterator@UBlendedAnimation@Moo@@V?$allocator@UBlendedAnimation@Moo@@@std@@@std@@0@Z$7
	DD	07H
	DD	FLAT:__unwindfunclet$?animate@Animation@Moo@@SAXV?$_Vector_const_iterator@UBlendedAnimation@Moo@@V?$allocator@UBlendedAnimation@Moo@@@std@@@std@@0@Z$8
	DD	07H
	DD	FLAT:__unwindfunclet$?animate@Animation@Moo@@SAXV?$_Vector_const_iterator@UBlendedAnimation@Moo@@V?$allocator@UBlendedAnimation@Moo@@@std@@@std@@0@Z$9
	DD	07H
	DD	FLAT:__unwindfunclet$?animate@Animation@Moo@@SAXV?$_Vector_const_iterator@UBlendedAnimation@Moo@@V?$allocator@UBlendedAnimation@Moo@@@std@@@std@@0@Z$10
	DD	0aH
	DD	FLAT:__unwindfunclet$?animate@Animation@Moo@@SAXV?$_Vector_const_iterator@UBlendedAnimation@Moo@@V?$allocator@UBlendedAnimation@Moo@@@std@@@std@@0@Z$11
	DD	0aH
	DD	FLAT:__unwindfunclet$?animate@Animation@Moo@@SAXV?$_Vector_const_iterator@UBlendedAnimation@Moo@@V?$allocator@UBlendedAnimation@Moo@@@std@@@std@@0@Z$12
; Function compile flags: /Odtp /RTCsu /ZI
xdata$x	ENDS
;	COMDAT ?animate@Animation@Moo@@SAXV?$_Vector_const_iterator@UBlendedAnimation@Moo@@V?$allocator@UBlendedAnimation@Moo@@@std@@@std@@0@Z
_TEXT	SEGMENT
tv264 = -492						; size = 4
tv224 = -492						; size = 4
tv293 = -488						; size = 4
tv291 = -488						; size = 4
tv288 = -488						; size = 4
tv286 = -488						; size = 4
tv280 = -488						; size = 4
tv376 = -484						; size = 4
tv197 = -484						; size = 4
tv138 = -484						; size = 4
tv135 = -484						; size = 4
tv132 = -484						; size = 4
tv67 = -484						; size = 4
$T144284 = -473						; size = 1
$T144285 = -464						; size = 12
$T144286 = -444						; size = 12
$T144287 = -424						; size = 12
$T144288 = -404						; size = 4
$T144289 = -392						; size = 4
_sumBr$136993 = -188					; size = 4
_oldBr$136992 = -176					; size = 4
_n$136988 = -164					; size = 4
_newBr$136692 = -152					; size = 4
_it$136634 = -140					; size = 12
_chanIndex$136633 = -120				; size = 4
_chanEnd$136632 = -108					; size = 12
_chan$136631 = -88					; size = 12
_channelTransform$136630 = -68				; size = 40
__BW_GUARD$ = -17					; size = 1
__$EHRec$ = -12						; size = 12
_first$ = 8						; size = 12
_final$ = 20						; size = 12
?animate@Animation@Moo@@SAXV?$_Vector_const_iterator@UBlendedAnimation@Moo@@V?$allocator@UBlendedAnimation@Moo@@@std@@@std@@0@Z PROC ; Moo::Animation::animate, COMDAT
; Line 227
  00000	55		 push	 ebp
  00001	8b ec		 mov	 ebp, esp
  00003	6a ff		 push	 -1
  00005	68 00 00 00 00	 push	 __ehhandler$?animate@Animation@Moo@@SAXV?$_Vector_const_iterator@UBlendedAnimation@Moo@@V?$allocator@UBlendedAnimation@Moo@@@std@@@std@@0@Z
  0000a	64 a1 00 00 00
	00		 mov	 eax, DWORD PTR fs:0
  00010	50		 push	 eax
  00011	81 ec e0 01 00
	00		 sub	 esp, 480		; 000001e0H
  00017	53		 push	 ebx
  00018	56		 push	 esi
  00019	57		 push	 edi
  0001a	8d bd 14 fe ff
	ff		 lea	 edi, DWORD PTR [ebp-492]
  00020	b9 78 00 00 00	 mov	 ecx, 120		; 00000078H
  00025	b8 cc cc cc cc	 mov	 eax, -858993460		; ccccccccH
  0002a	f3 ab		 rep stosd
  0002c	a1 00 00 00 00	 mov	 eax, DWORD PTR ___security_cookie
  00031	33 c5		 xor	 eax, ebp
  00033	50		 push	 eax
  00034	8d 45 f4	 lea	 eax, DWORD PTR __$EHRec$[ebp]
  00037	64 a3 00 00 00
	00		 mov	 DWORD PTR fs:0, eax
  0003d	c7 45 fc 01 00
	00 00		 mov	 DWORD PTR __$EHRec$[ebp+8], 1
; Line 228
  00044	a1 00 00 00 00	 mov	 eax, DWORD PTR ?__LINE__Var@?1??animate@Animation@Moo@@SAXV?$_Vector_const_iterator@UBlendedAnimation@Moo@@V?$allocator@UBlendedAnimation@Moo@@@std@@@std@@0@Z@4JA@c5f11349
  00049	83 c0 01	 add	 eax, 1
  0004c	50		 push	 eax
  0004d	68 00 00 00 00	 push	 OFFSET ??_C@_0CD@PMFAICH@e?3?2bw191?2src?2lib?2moo?2animation?4c@
  00052	68 00 00 00 00	 push	 OFFSET ??_C@_0BI@FHKHAKB@Moo?3?3Animation?3?3animate?$AA@
  00057	8d 4d ef	 lea	 ecx, DWORD PTR __BW_GUARD$[ebp]
  0005a	e8 00 00 00 00	 call	 ??0ScopedStackTrack@@QAE@PBD0I@Z ; ScopedStackTrack::ScopedStackTrack
  0005f	c6 45 fc 02	 mov	 BYTE PTR __$EHRec$[ebp+8], 2
; Line 229
  00063	8d 45 14	 lea	 eax, DWORD PTR _final$[ebp]
  00066	50		 push	 eax
  00067	6a 01		 push	 1
  00069	8d 8d 30 fe ff
	ff		 lea	 ecx, DWORD PTR $T144285[ebp]
  0006f	51		 push	 ecx
  00070	8d 4d 08	 lea	 ecx, DWORD PTR _first$[ebp]
  00073	e8 00 00 00 00	 call	 ??H?$_Vector_const_iterator@UBlendedAnimation@Moo@@V?$allocator@UBlendedAnimation@Moo@@@std@@@std@@QBE?AV01@H@Z ; std::_Vector_const_iterator<Moo::BlendedAnimation,std::allocator<Moo::BlendedAnimation> >::operator+
  00078	89 85 1c fe ff
	ff		 mov	 DWORD PTR tv67[ebp], eax
  0007e	8b 95 1c fe ff
	ff		 mov	 edx, DWORD PTR tv67[ebp]
  00084	89 95 18 fe ff
	ff		 mov	 DWORD PTR tv280[ebp], edx
  0008a	c6 45 fc 03	 mov	 BYTE PTR __$EHRec$[ebp+8], 3
  0008e	8b 8d 18 fe ff
	ff		 mov	 ecx, DWORD PTR tv280[ebp]
  00094	e8 00 00 00 00	 call	 ??8?$_Vector_const_iterator@UBlendedAnimation@Moo@@V?$allocator@UBlendedAnimation@Moo@@@std@@@std@@QBE_NABV01@@Z ; std::_Vector_const_iterator<Moo::BlendedAnimation,std::allocator<Moo::BlendedAnimation> >::operator==
  00099	88 85 27 fe ff
	ff		 mov	 BYTE PTR $T144284[ebp], al
  0009f	c6 45 fc 02	 mov	 BYTE PTR __$EHRec$[ebp+8], 2
  000a3	8d 8d 30 fe ff
	ff		 lea	 ecx, DWORD PTR $T144285[ebp]
  000a9	e8 00 00 00 00	 call	 ??1?$_Vector_const_iterator@UBlendedAnimation@Moo@@V?$allocator@UBlendedAnimation@Moo@@@std@@@std@@QAE@XZ
  000ae	0f b6 85 27 fe
	ff ff		 movzx	 eax, BYTE PTR $T144284[ebp]
  000b5	85 c0		 test	 eax, eax
  000b7	74 23		 je	 SHORT $LN15@animate@3
; Line 231
  000b9	8d 4d 08	 lea	 ecx, DWORD PTR _first$[ebp]
  000bc	e8 00 00 00 00	 call	 ??C?$_Vector_const_iterator@UBlendedAnimation@Moo@@V?$allocator@UBlendedAnimation@Moo@@@std@@@std@@QBEPBUBlendedAnimation@Moo@@XZ ; std::_Vector_const_iterator<Moo::BlendedAnimation,std::allocator<Moo::BlendedAnimation> >::operator->
  000c1	51		 push	 ecx
  000c2	d9 40 08	 fld	 DWORD PTR [eax+8]
  000c5	d9 1c 24	 fstp	 DWORD PTR [esp]
  000c8	8d 4d 08	 lea	 ecx, DWORD PTR _first$[ebp]
  000cb	e8 00 00 00 00	 call	 ??C?$_Vector_const_iterator@UBlendedAnimation@Moo@@V?$allocator@UBlendedAnimation@Moo@@@std@@@std@@QBEPBUBlendedAnimation@Moo@@XZ ; std::_Vector_const_iterator<Moo::BlendedAnimation,std::allocator<Moo::BlendedAnimation> >::operator->
  000d0	8b 08		 mov	 ecx, DWORD PTR [eax]
  000d2	e8 00 00 00 00	 call	 ?animate@Animation@Moo@@QBEXM@Z ; Moo::Animation::animate
  000d7	e9 00 04 00 00	 jmp	 $LN13@animate@3
$LN15@animate@3:
; Line 233
  000dc	8d 45 14	 lea	 eax, DWORD PTR _final$[ebp]
  000df	50		 push	 eax
  000e0	8d 4d 08	 lea	 ecx, DWORD PTR _first$[ebp]
  000e3	e8 00 00 00 00	 call	 ??9?$_Vector_const_iterator@UBlendedAnimation@Moo@@V?$allocator@UBlendedAnimation@Moo@@@std@@@std@@QBE_NABV01@@Z ; std::_Vector_const_iterator<Moo::BlendedAnimation,std::allocator<Moo::BlendedAnimation> >::operator!=
  000e8	0f b6 c8	 movzx	 ecx, al
  000eb	85 c9		 test	 ecx, ecx
  000ed	0f 84 e9 03 00
	00		 je	 $LN13@animate@3
; Line 235
  000f3	8d 4d bc	 lea	 ecx, DWORD PTR _channelTransform$136630[ebp]
  000f6	e8 00 00 00 00	 call	 ??0BlendTransform@@QAE@XZ ; BlendTransform::BlendTransform
  000fb	c6 45 fc 04	 mov	 BYTE PTR __$EHRec$[ebp+8], 4
; Line 237
  000ff	8d 4d a8	 lea	 ecx, DWORD PTR _chan$136631[ebp]
  00102	e8 00 00 00 00	 call	 ??0?$_Vector_const_iterator@VChannelBinder@Moo@@V?$allocator@VChannelBinder@Moo@@@std@@@std@@QAE@XZ ; std::_Vector_const_iterator<Moo::ChannelBinder,std::allocator<Moo::ChannelBinder> >::_Vector_const_iterator<Moo::ChannelBinder,std::allocator<Moo::ChannelBinder> >
  00107	c6 45 fc 05	 mov	 BYTE PTR __$EHRec$[ebp+8], 5
; Line 238
  0010b	8d 4d 94	 lea	 ecx, DWORD PTR _chanEnd$136632[ebp]
  0010e	e8 00 00 00 00	 call	 ??0?$_Vector_const_iterator@VChannelBinder@Moo@@V?$allocator@VChannelBinder@Moo@@@std@@@std@@QAE@XZ ; std::_Vector_const_iterator<Moo::ChannelBinder,std::allocator<Moo::ChannelBinder> >::_Vector_const_iterator<Moo::ChannelBinder,std::allocator<Moo::ChannelBinder> >
  00113	c6 45 fc 06	 mov	 BYTE PTR __$EHRec$[ebp+8], 6
; Line 241
  00117	8d 45 08	 lea	 eax, DWORD PTR _first$[ebp]
  0011a	50		 push	 eax
  0011b	8d 8d 74 ff ff
	ff		 lea	 ecx, DWORD PTR _it$136634[ebp]
  00121	e8 00 00 00 00	 call	 ??0?$_Vector_const_iterator@UBlendedAnimation@Moo@@V?$allocator@UBlendedAnimation@Moo@@@std@@@std@@QAE@ABV01@@Z
  00126	c6 45 fc 07	 mov	 BYTE PTR __$EHRec$[ebp+8], 7
; Line 242
  0012a	eb 0b		 jmp	 SHORT $LN12@animate@3
$LN11@animate@3:
; Line 243
  0012c	8d 8d 74 ff ff
	ff		 lea	 ecx, DWORD PTR _it$136634[ebp]
  00132	e8 00 00 00 00	 call	 ??E?$_Vector_const_iterator@UBlendedAnimation@Moo@@V?$allocator@UBlendedAnimation@Moo@@@std@@@std@@QAEAAV01@XZ ; std::_Vector_const_iterator<Moo::BlendedAnimation,std::allocator<Moo::BlendedAnimation> >::operator++
$LN12@animate@3:
  00137	8d 45 14	 lea	 eax, DWORD PTR _final$[ebp]
  0013a	50		 push	 eax
  0013b	8d 8d 74 ff ff
	ff		 lea	 ecx, DWORD PTR _it$136634[ebp]
  00141	e8 00 00 00 00	 call	 ??9?$_Vector_const_iterator@UBlendedAnimation@Moo@@V?$allocator@UBlendedAnimation@Moo@@@std@@@std@@QBE_NABV01@@Z ; std::_Vector_const_iterator<Moo::BlendedAnimation,std::allocator<Moo::BlendedAnimation> >::operator!=
  00146	0f b6 c8	 movzx	 ecx, al
  00149	85 c9		 test	 ecx, ecx
  0014b	0f 84 58 03 00
	00		 je	 $LN10@animate@3
; Line 245
  00151	8d 8d 74 ff ff
	ff		 lea	 ecx, DWORD PTR _it$136634[ebp]
  00157	e8 00 00 00 00	 call	 ??C?$_Vector_const_iterator@UBlendedAnimation@Moo@@V?$allocator@UBlendedAnimation@Moo@@@std@@@std@@QBEPBUBlendedAnimation@Moo@@XZ ; std::_Vector_const_iterator<Moo::BlendedAnimation,std::allocator<Moo::BlendedAnimation> >::operator->
  0015c	d9 ee		 fldz
  0015e	d9 40 0c	 fld	 DWORD PTR [eax+12]
  00161	df e9		 fucomip ST(1)
  00163	dd d8		 fstp	 ST(0)
  00165	9f		 lahf
  00166	f6 c4 44	 test	 ah, 68			; 00000044H
  00169	0f 8b 35 03 00
	00		 jnp	 $LN7@animate@3
; Line 247
  0016f	8d 85 44 fe ff
	ff		 lea	 eax, DWORD PTR $T144286[ebp]
  00175	50		 push	 eax
  00176	8d 8d 74 ff ff
	ff		 lea	 ecx, DWORD PTR _it$136634[ebp]
  0017c	e8 00 00 00 00	 call	 ??C?$_Vector_const_iterator@UBlendedAnimation@Moo@@V?$allocator@UBlendedAnimation@Moo@@@std@@@std@@QBEPBUBlendedAnimation@Moo@@XZ ; std::_Vector_const_iterator<Moo::BlendedAnimation,std::allocator<Moo::BlendedAnimation> >::operator->
  00181	8b 08		 mov	 ecx, DWORD PTR [eax]
  00183	83 c1 0c	 add	 ecx, 12			; 0000000cH
  00186	e8 00 00 00 00	 call	 ?begin@?$vector@VChannelBinder@Moo@@V?$allocator@VChannelBinder@Moo@@@std@@@std@@QAE?AV?$_Vector_iterator@VChannelBinder@Moo@@V?$allocator@VChannelBinder@Moo@@@std@@@2@XZ ; std::vector<Moo::ChannelBinder,std::allocator<Moo::ChannelBinder> >::begin
  0018b	89 85 1c fe ff
	ff		 mov	 DWORD PTR tv138[ebp], eax
  00191	8b 8d 1c fe ff
	ff		 mov	 ecx, DWORD PTR tv138[ebp]
  00197	89 8d 18 fe ff
	ff		 mov	 DWORD PTR tv286[ebp], ecx
  0019d	c6 45 fc 08	 mov	 BYTE PTR __$EHRec$[ebp+8], 8
  001a1	8b 95 18 fe ff
	ff		 mov	 edx, DWORD PTR tv286[ebp]
  001a7	52		 push	 edx
  001a8	8d 4d a8	 lea	 ecx, DWORD PTR _chan$136631[ebp]
  001ab	e8 00 00 00 00	 call	 ??4?$_Vector_const_iterator@VChannelBinder@Moo@@V?$allocator@VChannelBinder@Moo@@@std@@@std@@QAEAAV01@ABV01@@Z
  001b0	c6 45 fc 07	 mov	 BYTE PTR __$EHRec$[ebp+8], 7
  001b4	8d 8d 44 fe ff
	ff		 lea	 ecx, DWORD PTR $T144286[ebp]
  001ba	e8 00 00 00 00	 call	 ??1?$_Vector_iterator@VChannelBinder@Moo@@V?$allocator@VChannelBinder@Moo@@@std@@@std@@QAE@XZ
; Line 248
  001bf	8d 85 58 fe ff
	ff		 lea	 eax, DWORD PTR $T144287[ebp]
  001c5	50		 push	 eax
  001c6	8d 8d 74 ff ff
	ff		 lea	 ecx, DWORD PTR _it$136634[ebp]
  001cc	e8 00 00 00 00	 call	 ??C?$_Vector_const_iterator@UBlendedAnimation@Moo@@V?$allocator@UBlendedAnimation@Moo@@@std@@@std@@QBEPBUBlendedAnimation@Moo@@XZ ; std::_Vector_const_iterator<Moo::BlendedAnimation,std::allocator<Moo::BlendedAnimation> >::operator->
  001d1	8b 08		 mov	 ecx, DWORD PTR [eax]
  001d3	83 c1 0c	 add	 ecx, 12			; 0000000cH
  001d6	e8 00 00 00 00	 call	 ?end@?$vector@VChannelBinder@Moo@@V?$allocator@VChannelBinder@Moo@@@std@@@std@@QAE?AV?$_Vector_iterator@VChannelBinder@Moo@@V?$allocator@VChannelBinder@Moo@@@std@@@2@XZ ; std::vector<Moo::ChannelBinder,std::allocator<Moo::ChannelBinder> >::end
  001db	89 85 1c fe ff
	ff		 mov	 DWORD PTR tv135[ebp], eax
  001e1	8b 8d 1c fe ff
	ff		 mov	 ecx, DWORD PTR tv135[ebp]
  001e7	89 8d 18 fe ff
	ff		 mov	 DWORD PTR tv288[ebp], ecx
  001ed	c6 45 fc 09	 mov	 BYTE PTR __$EHRec$[ebp+8], 9
  001f1	8b 95 18 fe ff
	ff		 mov	 edx, DWORD PTR tv288[ebp]
  001f7	52		 push	 edx
  001f8	8d 4d 94	 lea	 ecx, DWORD PTR _chanEnd$136632[ebp]
  001fb	e8 00 00 00 00	 call	 ??4?$_Vector_const_iterator@VChannelBinder@Moo@@V?$allocator@VChannelBinder@Moo@@@std@@@std@@QAEAAV01@ABV01@@Z
  00200	c6 45 fc 07	 mov	 BYTE PTR __$EHRec$[ebp+8], 7
  00204	8d 8d 58 fe ff
	ff		 lea	 ecx, DWORD PTR $T144287[ebp]
  0020a	e8 00 00 00 00	 call	 ??1?$_Vector_iterator@VChannelBinder@Moo@@V?$allocator@VChannelBinder@Moo@@@std@@@std@@QAE@XZ
; Line 249
  0020f	c7 45 88 00 00
	00 00		 mov	 DWORD PTR _chanIndex$136633[ebp], 0
$LN8@animate@3:
; Line 250
  00216	8d 45 94	 lea	 eax, DWORD PTR _chanEnd$136632[ebp]
  00219	50		 push	 eax
  0021a	8d 4d a8	 lea	 ecx, DWORD PTR _chan$136631[ebp]
  0021d	e8 00 00 00 00	 call	 ??9?$_Vector_const_iterator@VChannelBinder@Moo@@V?$allocator@VChannelBinder@Moo@@@std@@@std@@QBE_NABV01@@Z ; std::_Vector_const_iterator<Moo::ChannelBinder,std::allocator<Moo::ChannelBinder> >::operator!=
  00222	0f b6 c8	 movzx	 ecx, al
  00225	85 c9		 test	 ecx, ecx
  00227	0f 84 77 02 00
	00		 je	 $LN7@animate@3
; Line 252
  0022d	8d 8d 74 ff ff
	ff		 lea	 ecx, DWORD PTR _it$136634[ebp]
  00233	e8 00 00 00 00	 call	 ??C?$_Vector_const_iterator@UBlendedAnimation@Moo@@V?$allocator@UBlendedAnimation@Moo@@@std@@@std@@QBEPBUBlendedAnimation@Moo@@XZ ; std::_Vector_const_iterator<Moo::BlendedAnimation,std::allocator<Moo::BlendedAnimation> >::operator->
  00238	f3 0f 10 40 0c	 movss	 xmm0, DWORD PTR [eax+12]
  0023d	f3 0f 11 85 68
	ff ff ff	 movss	 DWORD PTR _newBr$136692[ebp], xmm0
; Line 253
  00245	8d 8d 74 ff ff
	ff		 lea	 ecx, DWORD PTR _it$136634[ebp]
  0024b	e8 00 00 00 00	 call	 ??C?$_Vector_const_iterator@UBlendedAnimation@Moo@@V?$allocator@UBlendedAnimation@Moo@@@std@@@std@@QBEPBUBlendedAnimation@Moo@@XZ ; std::_Vector_const_iterator<Moo::BlendedAnimation,std::allocator<Moo::BlendedAnimation> >::operator->
  00250	83 78 04 00	 cmp	 DWORD PTR [eax+4], 0
  00254	74 25		 je	 SHORT $LN6@animate@3
; Line 255
  00256	8b 45 88	 mov	 eax, DWORD PTR _chanIndex$136633[ebp]
  00259	50		 push	 eax
  0025a	8d 8d 74 ff ff
	ff		 lea	 ecx, DWORD PTR _it$136634[ebp]
  00260	e8 00 00 00 00	 call	 ??C?$_Vector_const_iterator@UBlendedAnimation@Moo@@V?$allocator@UBlendedAnimation@Moo@@@std@@@std@@QBEPBUBlendedAnimation@Moo@@XZ ; std::_Vector_const_iterator<Moo::BlendedAnimation,std::allocator<Moo::BlendedAnimation> >::operator->
  00265	8b 48 04	 mov	 ecx, DWORD PTR [eax+4]
  00268	e8 00 00 00 00	 call	 ??A?$vector@MV?$allocator@M@std@@@std@@QBEABMI@Z ; std::vector<float,std::allocator<float> >::operator[]
  0026d	d9 85 68 ff ff
	ff		 fld	 DWORD PTR _newBr$136692[ebp]
  00273	d8 08		 fmul	 DWORD PTR [eax]
  00275	d9 9d 68 ff ff
	ff		 fstp	 DWORD PTR _newBr$136692[ebp]
$LN6@animate@3:
; Line 258
  0027b	8d 85 5c ff ff
	ff		 lea	 eax, DWORD PTR _n$136988[ebp]
  00281	50		 push	 eax
  00282	8d 4d a8	 lea	 ecx, DWORD PTR _chan$136631[ebp]
  00285	e8 00 00 00 00	 call	 ??C?$_Vector_const_iterator@VChannelBinder@Moo@@V?$allocator@VChannelBinder@Moo@@@std@@@std@@QBEPBVChannelBinder@Moo@@XZ ; std::_Vector_const_iterator<Moo::ChannelBinder,std::allocator<Moo::ChannelBinder> >::operator->
  0028a	8b c8		 mov	 ecx, eax
  0028c	e8 00 00 00 00	 call	 ?node@ChannelBinder@Moo@@QBE?AV?$SmartPointer@VNode@Moo@@@@XZ ; Moo::ChannelBinder::node
  00291	c6 45 fc 0a	 mov	 BYTE PTR __$EHRec$[ebp+8], 10 ; 0000000aH
; Line 259
  00295	8d 8d 5c ff ff
	ff		 lea	 ecx, DWORD PTR _n$136988[ebp]
  0029b	e8 00 00 00 00	 call	 ??B?$ConstSmartPointer@VNode@Moo@@@@QBEPQ0@PBVNode@Moo@@XZ ; ConstSmartPointer<Moo::Node>::operator Moo::Node const * ConstSmartPointer<Moo::Node>::*
  002a0	83 f8 ff	 cmp	 eax, -1
  002a3	0f 84 52 01 00
	00		 je	 $LN5@animate@3
; Line 261
  002a9	d9 ee		 fldz
  002ab	d9 85 68 ff ff
	ff		 fld	 DWORD PTR _newBr$136692[ebp]
  002b1	df f1		 fcomip	 ST(1)
  002b3	dd d8		 fstp	 ST(0)
  002b5	0f 86 3b 01 00
	00		 jbe	 $LN4@animate@3
; Line 263
  002bb	a1 00 00 00 00	 mov	 eax, DWORD PTR ?s_blendCookie_@Node@Moo@@2HA ; Moo::Node::s_blendCookie_
  002c0	50		 push	 eax
  002c1	8d 8d 5c ff ff
	ff		 lea	 ecx, DWORD PTR _n$136988[ebp]
  002c7	e8 00 00 00 00	 call	 ??C?$SmartPointer@VNode@Moo@@@@QBEPAVNode@Moo@@XZ ; SmartPointer<Moo::Node>::operator->
  002cc	8b c8		 mov	 ecx, eax
  002ce	e8 00 00 00 00	 call	 ?blend@Node@Moo@@QAEMH@Z ; Moo::Node::blend
  002d3	d9 9d 50 ff ff
	ff		 fstp	 DWORD PTR _oldBr$136992[ebp]
; Line 264
  002d9	d9 85 50 ff ff
	ff		 fld	 DWORD PTR _oldBr$136992[ebp]
  002df	d8 85 68 ff ff
	ff		 fadd	 DWORD PTR _newBr$136692[ebp]
  002e5	d9 9d 44 ff ff
	ff		 fstp	 DWORD PTR _sumBr$136993[ebp]
; Line 265
  002eb	8d 85 6c fe ff
	ff		 lea	 eax, DWORD PTR $T144288[ebp]
  002f1	50		 push	 eax
  002f2	8d 4d a8	 lea	 ecx, DWORD PTR _chan$136631[ebp]
  002f5	e8 00 00 00 00	 call	 ??C?$_Vector_const_iterator@VChannelBinder@Moo@@V?$allocator@VChannelBinder@Moo@@@std@@@std@@QBEPBVChannelBinder@Moo@@XZ ; std::_Vector_const_iterator<Moo::ChannelBinder,std::allocator<Moo::ChannelBinder> >::operator->
  002fa	8b c8		 mov	 ecx, eax
  002fc	e8 00 00 00 00	 call	 ?channel@ChannelBinder@Moo@@QBE?AV?$SmartPointer@VAnimationChannel@Moo@@@@XZ ; Moo::ChannelBinder::channel
  00301	89 85 1c fe ff
	ff		 mov	 DWORD PTR tv197[ebp], eax
  00307	8b 8d 1c fe ff
	ff		 mov	 ecx, DWORD PTR tv197[ebp]
  0030d	89 8d 18 fe ff
	ff		 mov	 DWORD PTR tv291[ebp], ecx
  00313	c6 45 fc 0b	 mov	 BYTE PTR __$EHRec$[ebp+8], 11 ; 0000000bH
  00317	8b 8d 18 fe ff
	ff		 mov	 ecx, DWORD PTR tv291[ebp]
  0031d	e8 00 00 00 00	 call	 ??C?$SmartPointer@VAnimationChannel@Moo@@@@QBEPAVAnimationChannel@Moo@@XZ ; SmartPointer<Moo::AnimationChannel>::operator->
  00322	89 85 14 fe ff
	ff		 mov	 DWORD PTR tv224[ebp], eax
  00328	8b f4		 mov	 esi, esp
  0032a	8d 55 bc	 lea	 edx, DWORD PTR _channelTransform$136630[ebp]
  0032d	52		 push	 edx
  0032e	8d 8d 74 ff ff
	ff		 lea	 ecx, DWORD PTR _it$136634[ebp]
  00334	e8 00 00 00 00	 call	 ??C?$_Vector_const_iterator@UBlendedAnimation@Moo@@V?$allocator@UBlendedAnimation@Moo@@@std@@@std@@QBEPBUBlendedAnimation@Moo@@XZ ; std::_Vector_const_iterator<Moo::BlendedAnimation,std::allocator<Moo::BlendedAnimation> >::operator->
  00339	51		 push	 ecx
  0033a	d9 40 08	 fld	 DWORD PTR [eax+8]
  0033d	d9 1c 24	 fstp	 DWORD PTR [esp]
  00340	8b 85 14 fe ff
	ff		 mov	 eax, DWORD PTR tv224[ebp]
  00346	8b 10		 mov	 edx, DWORD PTR [eax]
  00348	8b 8d 14 fe ff
	ff		 mov	 ecx, DWORD PTR tv224[ebp]
  0034e	8b 42 04	 mov	 eax, DWORD PTR [edx+4]
  00351	ff d0		 call	 eax
  00353	3b f4		 cmp	 esi, esp
  00355	e8 00 00 00 00	 call	 __RTC_CheckEsp
  0035a	c6 45 fc 0a	 mov	 BYTE PTR __$EHRec$[ebp+8], 10 ; 0000000aH
  0035e	8d 8d 6c fe ff
	ff		 lea	 ecx, DWORD PTR $T144288[ebp]
  00364	e8 00 00 00 00	 call	 ??1?$SmartPointer@VAnimationChannel@Moo@@@@QAE@XZ
; Line 267
  00369	d9 ee		 fldz
  0036b	d9 85 50 ff ff
	ff		 fld	 DWORD PTR _oldBr$136992[ebp]
  00371	df e9		 fucomip ST(1)
  00373	dd d8		 fstp	 ST(0)
  00375	9f		 lahf
  00376	f6 c4 44	 test	 ah, 68			; 00000044H
  00379	7a 20		 jp	 SHORT $LN3@animate@3
; Line 269
  0037b	8d 8d 5c ff ff
	ff		 lea	 ecx, DWORD PTR _n$136988[ebp]
  00381	e8 00 00 00 00	 call	 ??C?$SmartPointer@VNode@Moo@@@@QBEPAVNode@Moo@@XZ ; SmartPointer<Moo::Node>::operator->
  00386	8b c8		 mov	 ecx, eax
  00388	e8 00 00 00 00	 call	 ?blendTransform@Node@Moo@@QAEAAVBlendTransform@@XZ ; Moo::Node::blendTransform
  0038d	b9 0a 00 00 00	 mov	 ecx, 10			; 0000000aH
  00392	8d 75 bc	 lea	 esi, DWORD PTR _channelTransform$136630[ebp]
  00395	8b f8		 mov	 edi, eax
  00397	f3 a5		 rep movsd
; Line 271
  00399	eb 39		 jmp	 SHORT $LN2@animate@3
$LN3@animate@3:
; Line 273
  0039b	8d 45 bc	 lea	 eax, DWORD PTR _channelTransform$136630[ebp]
  0039e	50		 push	 eax
  0039f	d9 85 68 ff ff
	ff		 fld	 DWORD PTR _newBr$136692[ebp]
  003a5	d8 b5 44 ff ff
	ff		 fdiv	 DWORD PTR _sumBr$136993[ebp]
  003ab	d9 9d 1c fe ff
	ff		 fstp	 DWORD PTR tv376[ebp]
  003b1	d9 85 1c fe ff
	ff		 fld	 DWORD PTR tv376[ebp]
  003b7	51		 push	 ecx
  003b8	d9 1c 24	 fstp	 DWORD PTR [esp]
  003bb	8d 8d 5c ff ff
	ff		 lea	 ecx, DWORD PTR _n$136988[ebp]
  003c1	e8 00 00 00 00	 call	 ??C?$SmartPointer@VNode@Moo@@@@QBEPAVNode@Moo@@XZ ; SmartPointer<Moo::Node>::operator->
  003c6	8b c8		 mov	 ecx, eax
  003c8	e8 00 00 00 00	 call	 ?blendTransform@Node@Moo@@QAEAAVBlendTransform@@XZ ; Moo::Node::blendTransform
  003cd	8b c8		 mov	 ecx, eax
  003cf	e8 00 00 00 00	 call	 ?blend@BlendTransform@@QAEXMABV1@@Z ; BlendTransform::blend
$LN2@animate@3:
; Line 275
  003d4	51		 push	 ecx
  003d5	d9 85 44 ff ff
	ff		 fld	 DWORD PTR _sumBr$136993[ebp]
  003db	d9 1c 24	 fstp	 DWORD PTR [esp]
  003de	a1 00 00 00 00	 mov	 eax, DWORD PTR ?s_blendCookie_@Node@Moo@@2HA ; Moo::Node::s_blendCookie_
  003e3	50		 push	 eax
  003e4	8d 8d 5c ff ff
	ff		 lea	 ecx, DWORD PTR _n$136988[ebp]
  003ea	e8 00 00 00 00	 call	 ??C?$SmartPointer@VNode@Moo@@@@QBEPAVNode@Moo@@XZ ; SmartPointer<Moo::Node>::operator->
  003ef	8b c8		 mov	 ecx, eax
  003f1	e8 00 00 00 00	 call	 ?blend@Node@Moo@@QAEXHM@Z ; Moo::Node::blend
$LN4@animate@3:
; Line 278
  003f6	e9 84 00 00 00	 jmp	 $LN1@animate@3
$LN5@animate@3:
; Line 280
  003fb	8d 85 78 fe ff
	ff		 lea	 eax, DWORD PTR $T144289[ebp]
  00401	50		 push	 eax
  00402	8d 4d a8	 lea	 ecx, DWORD PTR _chan$136631[ebp]
  00405	e8 00 00 00 00	 call	 ??C?$_Vector_const_iterator@VChannelBinder@Moo@@V?$allocator@VChannelBinder@Moo@@@std@@@std@@QBEPBVChannelBinder@Moo@@XZ ; std::_Vector_const_iterator<Moo::ChannelBinder,std::allocator<Moo::ChannelBinder> >::operator->
  0040a	8b c8		 mov	 ecx, eax
  0040c	e8 00 00 00 00	 call	 ?channel@ChannelBinder@Moo@@QBE?AV?$SmartPointer@VAnimationChannel@Moo@@@@XZ ; Moo::ChannelBinder::channel
  00411	89 85 1c fe ff
	ff		 mov	 DWORD PTR tv132[ebp], eax
  00417	8b 8d 1c fe ff
	ff		 mov	 ecx, DWORD PTR tv132[ebp]
  0041d	89 8d 18 fe ff
	ff		 mov	 DWORD PTR tv293[ebp], ecx
  00423	c6 45 fc 0c	 mov	 BYTE PTR __$EHRec$[ebp+8], 12 ; 0000000cH
  00427	8b 8d 18 fe ff
	ff		 mov	 ecx, DWORD PTR tv293[ebp]
  0042d	e8 00 00 00 00	 call	 ??C?$SmartPointer@VAnimationChannel@Moo@@@@QBEPAVAnimationChannel@Moo@@XZ ; SmartPointer<Moo::AnimationChannel>::operator->
  00432	89 85 14 fe ff
	ff		 mov	 DWORD PTR tv264[ebp], eax
  00438	8b f4		 mov	 esi, esp
  0043a	51		 push	 ecx
  0043b	d9 85 68 ff ff
	ff		 fld	 DWORD PTR _newBr$136692[ebp]
  00441	d9 1c 24	 fstp	 DWORD PTR [esp]
  00444	8d 8d 74 ff ff
	ff		 lea	 ecx, DWORD PTR _it$136634[ebp]
  0044a	e8 00 00 00 00	 call	 ??C?$_Vector_const_iterator@UBlendedAnimation@Moo@@V?$allocator@UBlendedAnimation@Moo@@@std@@@std@@QBEPBUBlendedAnimation@Moo@@XZ ; std::_Vector_const_iterator<Moo::BlendedAnimation,std::allocator<Moo::BlendedAnimation> >::operator->
  0044f	51		 push	 ecx
  00450	d9 40 08	 fld	 DWORD PTR [eax+8]
  00453	d9 1c 24	 fstp	 DWORD PTR [esp]
  00456	8b 95 14 fe ff
	ff		 mov	 edx, DWORD PTR tv264[ebp]
  0045c	8b 02		 mov	 eax, DWORD PTR [edx]
  0045e	8b 8d 14 fe ff
	ff		 mov	 ecx, DWORD PTR tv264[ebp]
  00464	8b 50 10	 mov	 edx, DWORD PTR [eax+16]
  00467	ff d2		 call	 edx
  00469	3b f4		 cmp	 esi, esp
  0046b	e8 00 00 00 00	 call	 __RTC_CheckEsp
  00470	c6 45 fc 0a	 mov	 BYTE PTR __$EHRec$[ebp+8], 10 ; 0000000aH
  00474	8d 8d 78 fe ff
	ff		 lea	 ecx, DWORD PTR $T144289[ebp]
  0047a	e8 00 00 00 00	 call	 ??1?$SmartPointer@VAnimationChannel@Moo@@@@QAE@XZ
$LN1@animate@3:
; Line 283
  0047f	8d 4d a8	 lea	 ecx, DWORD PTR _chan$136631[ebp]
  00482	e8 00 00 00 00	 call	 ??E?$_Vector_const_iterator@VChannelBinder@Moo@@V?$allocator@VChannelBinder@Moo@@@std@@@std@@QAEAAV01@XZ ; std::_Vector_const_iterator<Moo::ChannelBinder,std::allocator<Moo::ChannelBinder> >::operator++
; Line 284
  00487	8b 45 88	 mov	 eax, DWORD PTR _chanIndex$136633[ebp]
  0048a	83 c0 01	 add	 eax, 1
  0048d	89 45 88	 mov	 DWORD PTR _chanIndex$136633[ebp], eax
; Line 285
  00490	c6 45 fc 07	 mov	 BYTE PTR __$EHRec$[ebp+8], 7
  00494	8d 8d 5c ff ff
	ff		 lea	 ecx, DWORD PTR _n$136988[ebp]
  0049a	e8 00 00 00 00	 call	 ??1?$SmartPointer@VNode@Moo@@@@QAE@XZ
  0049f	e9 72 fd ff ff	 jmp	 $LN8@animate@3
$LN7@animate@3:
; Line 286
  004a4	e9 83 fc ff ff	 jmp	 $LN11@animate@3
$LN10@animate@3:
; Line 287
  004a9	c6 45 fc 06	 mov	 BYTE PTR __$EHRec$[ebp+8], 6
  004ad	8d 8d 74 ff ff
	ff		 lea	 ecx, DWORD PTR _it$136634[ebp]
  004b3	e8 00 00 00 00	 call	 ??1?$_Vector_const_iterator@UBlendedAnimation@Moo@@V?$allocator@UBlendedAnimation@Moo@@@std@@@std@@QAE@XZ
; Line 288
  004b8	c6 45 fc 05	 mov	 BYTE PTR __$EHRec$[ebp+8], 5
  004bc	8d 4d 94	 lea	 ecx, DWORD PTR _chanEnd$136632[ebp]
  004bf	e8 00 00 00 00	 call	 ??1?$_Vector_const_iterator@VChannelBinder@Moo@@V?$allocator@VChannelBinder@Moo@@@std@@@std@@QAE@XZ
  004c4	c6 45 fc 04	 mov	 BYTE PTR __$EHRec$[ebp+8], 4
  004c8	8d 4d a8	 lea	 ecx, DWORD PTR _chan$136631[ebp]
  004cb	e8 00 00 00 00	 call	 ??1?$_Vector_const_iterator@VChannelBinder@Moo@@V?$allocator@VChannelBinder@Moo@@@std@@@std@@QAE@XZ
  004d0	c6 45 fc 02	 mov	 BYTE PTR __$EHRec$[ebp+8], 2
  004d4	8d 4d bc	 lea	 ecx, DWORD PTR _channelTransform$136630[ebp]
  004d7	e8 00 00 00 00	 call	 ??1BlendTransform@@QAE@XZ ; BlendTransform::~BlendTransform
$LN13@animate@3:
; Line 290
  004dc	a1 00 00 00 00	 mov	 eax, DWORD PTR ?s_blendCookie_@Node@Moo@@2HA ; Moo::Node::s_blendCookie_
  004e1	83 c0 01	 add	 eax, 1
  004e4	25 ff ff ff 0f	 and	 eax, 268435455		; 0fffffffH
  004e9	a3 00 00 00 00	 mov	 DWORD PTR ?s_blendCookie_@Node@Moo@@2HA, eax ; Moo::Node::s_blendCookie_
; Line 291
  004ee	c6 45 fc 01	 mov	 BYTE PTR __$EHRec$[ebp+8], 1
  004f2	8d 4d ef	 lea	 ecx, DWORD PTR __BW_GUARD$[ebp]
  004f5	e8 00 00 00 00	 call	 ??1ScopedStackTrack@@QAE@XZ ; ScopedStackTrack::~ScopedStackTrack
  004fa	c6 45 fc 00	 mov	 BYTE PTR __$EHRec$[ebp+8], 0
  004fe	8d 4d 08	 lea	 ecx, DWORD PTR _first$[ebp]
  00501	e8 00 00 00 00	 call	 ??1?$_Vector_const_iterator@UBlendedAnimation@Moo@@V?$allocator@UBlendedAnimation@Moo@@@std@@@std@@QAE@XZ
  00506	c7 45 fc ff ff
	ff ff		 mov	 DWORD PTR __$EHRec$[ebp+8], -1
  0050d	8d 4d 14	 lea	 ecx, DWORD PTR _final$[ebp]
  00510	e8 00 00 00 00	 call	 ??1?$_Vector_const_iterator@UBlendedAnimation@Moo@@V?$allocator@UBlendedAnimation@Moo@@@std@@@std@@QAE@XZ
  00515	52		 push	 edx
  00516	8b cd		 mov	 ecx, ebp
  00518	50		 push	 eax
  00519	8d 15 00 00 00
	00		 lea	 edx, DWORD PTR $LN39@animate@3
  0051f	e8 00 00 00 00	 call	 @_RTC_CheckStackVars@8
  00524	58		 pop	 eax
  00525	5a		 pop	 edx
  00526	8b 4d f4	 mov	 ecx, DWORD PTR __$EHRec$[ebp]
  00529	64 89 0d 00 00
	00 00		 mov	 DWORD PTR fs:0, ecx
  00530	59		 pop	 ecx
  00531	5f		 pop	 edi
  00532	5e		 pop	 esi
  00533	5b		 pop	 ebx
  00534	81 c4 ec 01 00
	00		 add	 esp, 492		; 000001ecH
  0053a	3b ec		 cmp	 ebp, esp
  0053c	e8 00 00 00 00	 call	 __RTC_CheckEsp
  00541	8b e5		 mov	 esp, ebp
  00543	5d		 pop	 ebp
  00544	c3		 ret	 0
  00545	8d 49 00	 npad	 3
$LN39@animate@3:
  00548	06 00 00 00	 DD	 6
  0054c	00 00 00 00	 DD	 $LN38@animate@3
$LN38@animate@3:
  00550	ef ff ff ff	 DD	 -17			; ffffffefH
  00554	01 00 00 00	 DD	 1
  00558	00 00 00 00	 DD	 $LN31@animate@3
  0055c	bc ff ff ff	 DD	 -68			; ffffffbcH
  00560	28 00 00 00	 DD	 40			; 00000028H
  00564	00 00 00 00	 DD	 $LN32@animate@3
  00568	a8 ff ff ff	 DD	 -88			; ffffffa8H
  0056c	0c 00 00 00	 DD	 12			; 0000000cH
  00570	00 00 00 00	 DD	 $LN33@animate@3
  00574	94 ff ff ff	 DD	 -108			; ffffff94H
  00578	0c 00 00 00	 DD	 12			; 0000000cH
  0057c	00 00 00 00	 DD	 $LN34@animate@3
  00580	74 ff ff ff	 DD	 -140			; ffffff74H
  00584	0c 00 00 00	 DD	 12			; 0000000cH
  00588	00 00 00 00	 DD	 $LN35@animate@3
  0058c	5c ff ff ff	 DD	 -164			; ffffff5cH
  00590	04 00 00 00	 DD	 4
  00594	00 00 00 00	 DD	 $LN36@animate@3
$LN36@animate@3:
  00598	6e		 DB	 110			; 0000006eH
  00599	00		 DB	 0
$LN35@animate@3:
  0059a	69		 DB	 105			; 00000069H
  0059b	74		 DB	 116			; 00000074H
  0059c	00		 DB	 0
$LN34@animate@3:
  0059d	63		 DB	 99			; 00000063H
  0059e	68		 DB	 104			; 00000068H
  0059f	61		 DB	 97			; 00000061H
  005a0	6e		 DB	 110			; 0000006eH
  005a1	45		 DB	 69			; 00000045H
  005a2	6e		 DB	 110			; 0000006eH
  005a3	64		 DB	 100			; 00000064H
  005a4	00		 DB	 0
$LN33@animate@3:
  005a5	63		 DB	 99			; 00000063H
  005a6	68		 DB	 104			; 00000068H
  005a7	61		 DB	 97			; 00000061H
  005a8	6e		 DB	 110			; 0000006eH
  005a9	00		 DB	 0
$LN32@animate@3:
  005aa	63		 DB	 99			; 00000063H
  005ab	68		 DB	 104			; 00000068H
  005ac	61		 DB	 97			; 00000061H
  005ad	6e		 DB	 110			; 0000006eH
  005ae	6e		 DB	 110			; 0000006eH
  005af	65		 DB	 101			; 00000065H
  005b0	6c		 DB	 108			; 0000006cH
  005b1	54		 DB	 84			; 00000054H
  005b2	72		 DB	 114			; 00000072H
  005b3	61		 DB	 97			; 00000061H
  005b4	6e		 DB	 110			; 0000006eH
  005b5	73		 DB	 115			; 00000073H
  005b6	66		 DB	 102			; 00000066H
  005b7	6f		 DB	 111			; 0000006fH
  005b8	72		 DB	 114			; 00000072H
  005b9	6d		 DB	 109			; 0000006dH
  005ba	00		 DB	 0
$LN31@animate@3:
  005bb	5f		 DB	 95			; 0000005fH
  005bc	42		 DB	 66			; 00000042H
  005bd	57		 DB	 87			; 00000057H
  005be	5f		 DB	 95			; 0000005fH
  005bf	47		 DB	 71			; 00000047H
  005c0	55		 DB	 85			; 00000055H
  005c1	41		 DB	 65			; 00000041H
  005c2	52		 DB	 82			; 00000052H
  005c3	44		 DB	 68			; 00000044H
  005c4	00		 DB	 0
_TEXT	ENDS
;	COMDAT text$x
text$x	SEGMENT
__unwindfunclet$?animate@Animation@Moo@@SAXV?$_Vector_const_iterator@UBlendedAnimation@Moo@@V?$allocator@UBlendedAnimation@Moo@@@std@@@std@@0@Z$0:
  00000	8d 4d 14	 lea	 ecx, DWORD PTR _final$[ebp]
  00003	e9 00 00 00 00	 jmp	 ??1?$_Vector_const_iterator@UBlendedAnimation@Moo@@V?$allocator@UBlendedAnimation@Moo@@@std@@@std@@QAE@XZ
__unwindfunclet$?animate@Animation@Moo@@SAXV?$_Vector_const_iterator@UBlendedAnimation@Moo@@V?$allocator@UBlendedAnimation@Moo@@@std@@@std@@0@Z$1:
  00008	8d 4d 08	 lea	 ecx, DWORD PTR _first$[ebp]
  0000b	e9 00 00 00 00	 jmp	 ??1?$_Vector_const_iterator@UBlendedAnimation@Moo@@V?$allocator@UBlendedAnimation@Moo@@@std@@@std@@QAE@XZ
__unwindfunclet$?animate@Animation@Moo@@SAXV?$_Vector_const_iterator@UBlendedAnimation@Moo@@V?$allocator@UBlendedAnimation@Moo@@@std@@@std@@0@Z$2:
  00010	8d 4d ef	 lea	 ecx, DWORD PTR __BW_GUARD$[ebp]
  00013	e9 00 00 00 00	 jmp	 ??1ScopedStackTrack@@QAE@XZ ; ScopedStackTrack::~ScopedStackTrack
__unwindfunclet$?animate@Animation@Moo@@SAXV?$_Vector_const_iterator@UBlendedAnimation@Moo@@V?$allocator@UBlendedAnimation@Moo@@@std@@@std@@0@Z$3:
  00018	8d 8d 30 fe ff
	ff		 lea	 ecx, DWORD PTR $T144285[ebp]
  0001e	e9 00 00 00 00	 jmp	 ??1?$_Vector_const_iterator@UBlendedAnimation@Moo@@V?$allocator@UBlendedAnimation@Moo@@@std@@@std@@QAE@XZ
__unwindfunclet$?animate@Animation@Moo@@SAXV?$_Vector_const_iterator@UBlendedAnimation@Moo@@V?$allocator@UBlendedAnimation@Moo@@@std@@@std@@0@Z$4:
  00023	8d 4d bc	 lea	 ecx, DWORD PTR _channelTransform$136630[ebp]
  00026	e9 00 00 00 00	 jmp	 ??1BlendTransform@@QAE@XZ ; BlendTransform::~BlendTransform
__unwindfunclet$?animate@Animation@Moo@@SAXV?$_Vector_const_iterator@UBlendedAnimation@Moo@@V?$allocator@UBlendedAnimation@Moo@@@std@@@std@@0@Z$5:
  0002b	8d 4d a8	 lea	 ecx, DWORD PTR _chan$136631[ebp]
  0002e	e9 00 00 00 00	 jmp	 ??1?$_Vector_const_iterator@VChannelBinder@Moo@@V?$allocator@VChannelBinder@Moo@@@std@@@std@@QAE@XZ
__unwindfunclet$?animate@Animation@Moo@@SAXV?$_Vector_const_iterator@UBlendedAnimation@Moo@@V?$allocator@UBlendedAnimation@Moo@@@std@@@std@@0@Z$6:
  00033	8d 4d 94	 lea	 ecx, DWORD PTR _chanEnd$136632[ebp]
  00036	e9 00 00 00 00	 jmp	 ??1?$_Vector_const_iterator@VChannelBinder@Moo@@V?$allocator@VChannelBinder@Moo@@@std@@@std@@QAE@XZ
__unwindfunclet$?animate@Animation@Moo@@SAXV?$_Vector_const_iterator@UBlendedAnimation@Moo@@V?$allocator@UBlendedAnimation@Moo@@@std@@@std@@0@Z$7:
  0003b	8d 8d 74 ff ff
	ff		 lea	 ecx, DWORD PTR _it$136634[ebp]
  00041	e9 00 00 00 00	 jmp	 ??1?$_Vector_const_iterator@UBlendedAnimation@Moo@@V?$allocator@UBlendedAnimation@Moo@@@std@@@std@@QAE@XZ
__unwindfunclet$?animate@Animation@Moo@@SAXV?$_Vector_const_iterator@UBlendedAnimation@Moo@@V?$allocator@UBlendedAnimation@Moo@@@std@@@std@@0@Z$8:
  00046	8d 8d 44 fe ff
	ff		 lea	 ecx, DWORD PTR $T144286[ebp]
  0004c	e9 00 00 00 00	 jmp	 ??1?$_Vector_iterator@VChannelBinder@Moo@@V?$allocator@VChannelBinder@Moo@@@std@@@std@@QAE@XZ
__unwindfunclet$?animate@Animation@Moo@@SAXV?$_Vector_const_iterator@UBlendedAnimation@Moo@@V?$allocator@UBlendedAnimation@Moo@@@std@@@std@@0@Z$9:
  00051	8d 8d 58 fe ff
	ff		 lea	 ecx, DWORD PTR $T144287[ebp]
  00057	e9 00 00 00 00	 jmp	 ??1?$_Vector_iterator@VChannelBinder@Moo@@V?$allocator@VChannelBinder@Moo@@@std@@@std@@QAE@XZ
__unwindfunclet$?animate@Animation@Moo@@SAXV?$_Vector_const_iterator@UBlendedAnimation@Moo@@V?$allocator@UBlendedAnimation@Moo@@@std@@@std@@0@Z$10:
  0005c	8d 8d 5c ff ff
	ff		 lea	 ecx, DWORD PTR _n$136988[ebp]
  00062	e9 00 00 00 00	 jmp	 ??1?$SmartPointer@VNode@Moo@@@@QAE@XZ
__unwindfunclet$?animate@Animation@Moo@@SAXV?$_Vector_const_iterator@UBlendedAnimation@Moo@@V?$allocator@UBlendedAnimation@Moo@@@std@@@std@@0@Z$11:
  00067	8d 8d 6c fe ff
	ff		 lea	 ecx, DWORD PTR $T144288[ebp]
  0006d	e9 00 00 00 00	 jmp	 ??1?$SmartPointer@VAnimationChannel@Moo@@@@QAE@XZ
__unwindfunclet$?animate@Animation@Moo@@SAXV?$_Vector_const_iterator@UBlendedAnimation@Moo@@V?$allocator@UBlendedAnimation@Moo@@@std@@@std@@0@Z$12:
  00072	8d 8d 78 fe ff
	ff		 lea	 ecx, DWORD PTR $T144289[ebp]
  00078	e9 00 00 00 00	 jmp	 ??1?$SmartPointer@VAnimationChannel@Moo@@@@QAE@XZ
__ehhandler$?animate@Animation@Moo@@SAXV?$_Vector_const_iterator@UBlendedAnimation@Moo@@V?$allocator@UBlendedAnimation@Moo@@@std@@@std@@0@Z:
  0007d	8b 54 24 08	 mov	 edx, DWORD PTR [esp+8]
  00081	8d 42 0c	 lea	 eax, DWORD PTR [edx+12]
  00084	8b 8a 10 fe ff
	ff		 mov	 ecx, DWORD PTR [edx-496]
  0008a	33 c8		 xor	 ecx, eax
  0008c	e8 00 00 00 00	 call	 @__security_check_cookie@4
  00091	b8 00 00 00 00	 mov	 eax, OFFSET __ehfuncinfo$?animate@Animation@Moo@@SAXV?$_Vector_const_iterator@UBlendedAnimation@Moo@@V?$allocator@UBlendedAnimation@Moo@@@std@@@std@@0@Z
  00096	e9 00 00 00 00	 jmp	 ___CxxFrameHandler3
text$x	ENDS
?animate@Animation@Moo@@SAXV?$_Vector_const_iterator@UBlendedAnimation@Moo@@V?$allocator@UBlendedAnimation@Moo@@@std@@@std@@0@Z ENDP ; Moo::Animation::animate
EXTRN	??0Vector3@@QAE@MMM@Z:PROC			; Vector3::Vector3
EXTRN	??0Quaternion@@QAE@MMMM@Z:PROC			; Quaternion::Quaternion
; Function compile flags: /Odtp /RTCsu /ZI
;	COMDAT ??0BlendTransform@@QAE@XZ
_TEXT	SEGMENT
_this$ = -8						; size = 4
??0BlendTransform@@QAE@XZ PROC				; BlendTransform::BlendTransform, COMDAT
; _this$ = ecx
; File e:\bw191\src\lib\math\blend_transform.hpp
; Line 79
  00000	55		 push	 ebp
  00001	8b ec		 mov	 ebp, esp
  00003	81 ec cc 00 00
	00		 sub	 esp, 204		; 000000ccH
  00009	53		 push	 ebx
  0000a	56		 push	 esi
  0000b	57		 push	 edi
  0000c	51		 push	 ecx
  0000d	8d bd 34 ff ff
	ff		 lea	 edi, DWORD PTR [ebp-204]
  00013	b9 33 00 00 00	 mov	 ecx, 51			; 00000033H
  00018	b8 cc cc cc cc	 mov	 eax, -858993460		; ccccccccH
  0001d	f3 ab		 rep stosd
  0001f	59		 pop	 ecx
  00020	89 4d f8	 mov	 DWORD PTR _this$[ebp], ecx
  00023	51		 push	 ecx
  00024	d9 e8		 fld1
  00026	d9 1c 24	 fstp	 DWORD PTR [esp]
  00029	51		 push	 ecx
  0002a	d9 ee		 fldz
  0002c	d9 1c 24	 fstp	 DWORD PTR [esp]
  0002f	51		 push	 ecx
  00030	d9 ee		 fldz
  00032	d9 1c 24	 fstp	 DWORD PTR [esp]
  00035	51		 push	 ecx
  00036	d9 ee		 fldz
  00038	d9 1c 24	 fstp	 DWORD PTR [esp]
  0003b	8b 4d f8	 mov	 ecx, DWORD PTR _this$[ebp]
  0003e	e8 00 00 00 00	 call	 ??0Quaternion@@QAE@MMMM@Z ; Quaternion::Quaternion
  00043	51		 push	 ecx
  00044	d9 e8		 fld1
  00046	d9 1c 24	 fstp	 DWORD PTR [esp]
  00049	51		 push	 ecx
  0004a	d9 e8		 fld1
  0004c	d9 1c 24	 fstp	 DWORD PTR [esp]
  0004f	51		 push	 ecx
  00050	d9 e8		 fld1
  00052	d9 1c 24	 fstp	 DWORD PTR [esp]
  00055	8b 4d f8	 mov	 ecx, DWORD PTR _this$[ebp]
  00058	83 c1 10	 add	 ecx, 16			; 00000010H
  0005b	e8 00 00 00 00	 call	 ??0Vector3@@QAE@MMM@Z	; Vector3::Vector3
  00060	51		 push	 ecx
  00061	d9 ee		 fldz
  00063	d9 1c 24	 fstp	 DWORD PTR [esp]
  00066	51		 push	 ecx
  00067	d9 ee		 fldz
  00069	d9 1c 24	 fstp	 DWORD PTR [esp]
  0006c	51		 push	 ecx
  0006d	d9 ee		 fldz
  0006f	d9 1c 24	 fstp	 DWORD PTR [esp]
  00072	8b 4d f8	 mov	 ecx, DWORD PTR _this$[ebp]
  00075	83 c1 1c	 add	 ecx, 28			; 0000001cH
  00078	e8 00 00 00 00	 call	 ??0Vector3@@QAE@MMM@Z	; Vector3::Vector3
; Line 80
  0007d	8b 45 f8	 mov	 eax, DWORD PTR _this$[ebp]
  00080	5f		 pop	 edi
  00081	5e		 pop	 esi
  00082	5b		 pop	 ebx
  00083	81 c4 cc 00 00
	00		 add	 esp, 204		; 000000ccH
  00089	3b ec		 cmp	 ebp, esp
  0008b	e8 00 00 00 00	 call	 __RTC_CheckEsp
  00090	8b e5		 mov	 esp, ebp
  00092	5d		 pop	 ebp
  00093	c3		 ret	 0
??0BlendTransform@@QAE@XZ ENDP				; BlendTransform::BlendTransform
; Function compile flags: /Odtp /RTCsu /ZI
_TEXT	ENDS
;	COMDAT ??1BlendTransform@@QAE@XZ
_TEXT	SEGMENT
_this$ = -8						; size = 4
??1BlendTransform@@QAE@XZ PROC				; BlendTransform::~BlendTransform, COMDAT
; _this$ = ecx
; Line 88
  00000	55		 push	 ebp
  00001	8b ec		 mov	 ebp, esp
  00003	81 ec cc 00 00
	00		 sub	 esp, 204		; 000000ccH
  00009	53		 push	 ebx
  0000a	56		 push	 esi
  0000b	57		 push	 edi
  0000c	51		 push	 ecx
  0000d	8d bd 34 ff ff
	ff		 lea	 edi, DWORD PTR [ebp-204]
  00013	b9 33 00 00 00	 mov	 ecx, 51			; 00000033H
  00018	b8 cc cc cc cc	 mov	 eax, -858993460		; ccccccccH
  0001d	f3 ab		 rep stosd
  0001f	59		 pop	 ecx
  00020	89 4d f8	 mov	 DWORD PTR _this$[ebp], ecx
; Line 89
  00023	5f		 pop	 edi
  00024	5e		 pop	 esi
  00025	5b		 pop	 ebx
  00026	8b e5		 mov	 esp, ebp
  00028	5d		 pop	 ebp
  00029	c3		 ret	 0
??1BlendTransform@@QAE@XZ ENDP				; BlendTransform::~BlendTransform
_TEXT	ENDS
PUBLIC	?D3DXVec3Lerp@@YAPAUD3DXVECTOR3@@PAU1@PBU1@1M@Z	; D3DXVec3Lerp
PUBLIC	__real@3ff0000000000000
EXTRN	_D3DXQuaternionSlerp@16:PROC
;	COMDAT __real@3ff0000000000000
CONST	SEGMENT
__real@3ff0000000000000 DQ 03ff0000000000000r	; 1
; Function compile flags: /Odtp /RTCsu /ZI
CONST	ENDS
;	COMDAT ?blend@BlendTransform@@QAEXMABV1@@Z
_TEXT	SEGMENT
_this$ = -8						; size = 4
_ts$ = 8						; size = 4
_bt$ = 12						; size = 4
?blend@BlendTransform@@QAEXMABV1@@Z PROC		; BlendTransform::blend, COMDAT
; _this$ = ecx
; Line 107
  00000	55		 push	 ebp
  00001	8b ec		 mov	 ebp, esp
  00003	81 ec cc 00 00
	00		 sub	 esp, 204		; 000000ccH
  00009	53		 push	 ebx
  0000a	56		 push	 esi
  0000b	57		 push	 edi
  0000c	51		 push	 ecx
  0000d	8d bd 34 ff ff
	ff		 lea	 edi, DWORD PTR [ebp-204]
  00013	b9 33 00 00 00	 mov	 ecx, 51			; 00000033H
  00018	b8 cc cc cc cc	 mov	 eax, -858993460		; ccccccccH
  0001d	f3 ab		 rep stosd
  0001f	59		 pop	 ecx
  00020	89 4d f8	 mov	 DWORD PTR _this$[ebp], ecx
; Line 108
  00023	d9 ee		 fldz
  00025	d9 45 08	 fld	 DWORD PTR _ts$[ebp]
  00028	df f1		 fcomip	 ST(1)
  0002a	dd d8		 fstp	 ST(0)
  0002c	76 6d		 jbe	 SHORT $LN3@blend
  0002e	d9 45 08	 fld	 DWORD PTR _ts$[ebp]
  00031	d9 e8		 fld1
  00033	df f1		 fcomip	 ST(1)
  00035	dd d8		 fstp	 ST(0)
  00037	76 62		 jbe	 SHORT $LN3@blend
; Line 110
  00039	51		 push	 ecx
  0003a	d9 45 08	 fld	 DWORD PTR _ts$[ebp]
  0003d	d9 1c 24	 fstp	 DWORD PTR [esp]
  00040	8b 45 0c	 mov	 eax, DWORD PTR _bt$[ebp]
  00043	50		 push	 eax
  00044	8b 4d f8	 mov	 ecx, DWORD PTR _this$[ebp]
  00047	51		 push	 ecx
  00048	8b 55 f8	 mov	 edx, DWORD PTR _this$[ebp]
  0004b	52		 push	 edx
  0004c	e8 00 00 00 00	 call	 _D3DXQuaternionSlerp@16
; Line 111
  00051	51		 push	 ecx
  00052	d9 45 08	 fld	 DWORD PTR _ts$[ebp]
  00055	d9 1c 24	 fstp	 DWORD PTR [esp]
  00058	8b 45 0c	 mov	 eax, DWORD PTR _bt$[ebp]
  0005b	83 c0 1c	 add	 eax, 28			; 0000001cH
  0005e	50		 push	 eax
  0005f	8b 4d f8	 mov	 ecx, DWORD PTR _this$[ebp]
  00062	83 c1 1c	 add	 ecx, 28			; 0000001cH
  00065	51		 push	 ecx
  00066	8b 55 f8	 mov	 edx, DWORD PTR _this$[ebp]
  00069	83 c2 1c	 add	 edx, 28			; 0000001cH
  0006c	52		 push	 edx
  0006d	e8 00 00 00 00	 call	 ?D3DXVec3Lerp@@YAPAUD3DXVECTOR3@@PAU1@PBU1@1M@Z ; D3DXVec3Lerp
  00072	83 c4 10	 add	 esp, 16			; 00000010H
; Line 112
  00075	51		 push	 ecx
  00076	d9 45 08	 fld	 DWORD PTR _ts$[ebp]
  00079	d9 1c 24	 fstp	 DWORD PTR [esp]
  0007c	8b 45 0c	 mov	 eax, DWORD PTR _bt$[ebp]
  0007f	83 c0 10	 add	 eax, 16			; 00000010H
  00082	50		 push	 eax
  00083	8b 4d f8	 mov	 ecx, DWORD PTR _this$[ebp]
  00086	83 c1 10	 add	 ecx, 16			; 00000010H
  00089	51		 push	 ecx
  0008a	8b 55 f8	 mov	 edx, DWORD PTR _this$[ebp]
  0008d	83 c2 10	 add	 edx, 16			; 00000010H
  00090	52		 push	 edx
  00091	e8 00 00 00 00	 call	 ?D3DXVec3Lerp@@YAPAUD3DXVECTOR3@@PAU1@PBU1@1M@Z ; D3DXVec3Lerp
  00096	83 c4 10	 add	 esp, 16			; 00000010H
  00099	eb 18		 jmp	 SHORT $LN1@blend
$LN3@blend:
; Line 114
  0009b	d9 e8		 fld1
  0009d	d9 45 08	 fld	 DWORD PTR _ts$[ebp]
  000a0	df f1		 fcomip	 ST(1)
  000a2	dd d8		 fstp	 ST(0)
  000a4	72 0d		 jb	 SHORT $LN1@blend
; Line 116
  000a6	8b 75 0c	 mov	 esi, DWORD PTR _bt$[ebp]
  000a9	b9 0a 00 00 00	 mov	 ecx, 10			; 0000000aH
  000ae	8b 7d f8	 mov	 edi, DWORD PTR _this$[ebp]
  000b1	f3 a5		 rep movsd
$LN1@blend:
; Line 124
  000b3	5f		 pop	 edi
  000b4	5e		 pop	 esi
  000b5	5b		 pop	 ebx
  000b6	81 c4 cc 00 00
	00		 add	 esp, 204		; 000000ccH
  000bc	3b ec		 cmp	 ebp, esp
  000be	e8 00 00 00 00	 call	 __RTC_CheckEsp
  000c3	8b e5		 mov	 esp, ebp
  000c5	5d		 pop	 ebp
  000c6	c2 08 00	 ret	 8
?blend@BlendTransform@@QAEXMABV1@@Z ENDP		; BlendTransform::blend
; Function compile flags: /Odtp /RTCsu /ZI
_TEXT	ENDS
;	COMDAT ?node@ChannelBinder@Moo@@QBE?AV?$SmartPointer@VNode@Moo@@@@XZ
_TEXT	SEGMENT
$T144330 = -212						; size = 4
_this$ = -8						; size = 4
___$ReturnUdt$ = 8					; size = 4
?node@ChannelBinder@Moo@@QBE?AV?$SmartPointer@VNode@Moo@@@@XZ PROC ; Moo::ChannelBinder::node, COMDAT
; _this$ = ecx
; File e:\bw191\src\lib\moo\animation_channel.hpp
; Line 143
  00000	55		 push	 ebp
  00001	8b ec		 mov	 ebp, esp
  00003	81 ec d8 00 00
	00		 sub	 esp, 216		; 000000d8H
  00009	53		 push	 ebx
  0000a	56		 push	 esi
  0000b	57		 push	 edi
  0000c	51		 push	 ecx
  0000d	8d bd 28 ff ff
	ff		 lea	 edi, DWORD PTR [ebp-216]
  00013	b9 36 00 00 00	 mov	 ecx, 54			; 00000036H
  00018	b8 cc cc cc cc	 mov	 eax, -858993460		; ccccccccH
  0001d	f3 ab		 rep stosd
  0001f	59		 pop	 ecx
  00020	89 4d f8	 mov	 DWORD PTR _this$[ebp], ecx
  00023	c7 85 2c ff ff
	ff 00 00 00 00	 mov	 DWORD PTR $T144330[ebp], 0
; Line 144
  0002d	8b 45 f8	 mov	 eax, DWORD PTR _this$[ebp]
  00030	83 c0 04	 add	 eax, 4
  00033	50		 push	 eax
  00034	8b 4d 08	 mov	 ecx, DWORD PTR ___$ReturnUdt$[ebp]
  00037	e8 00 00 00 00	 call	 ??0?$SmartPointer@VNode@Moo@@@@QAE@ABV0@@Z ; SmartPointer<Moo::Node>::SmartPointer<Moo::Node>
  0003c	8b 8d 2c ff ff
	ff		 mov	 ecx, DWORD PTR $T144330[ebp]
  00042	83 c9 01	 or	 ecx, 1
  00045	89 8d 2c ff ff
	ff		 mov	 DWORD PTR $T144330[ebp], ecx
  0004b	8b 45 08	 mov	 eax, DWORD PTR ___$ReturnUdt$[ebp]
; Line 145
  0004e	5f		 pop	 edi
  0004f	5e		 pop	 esi
  00050	5b		 pop	 ebx
  00051	81 c4 d8 00 00
	00		 add	 esp, 216		; 000000d8H
  00057	3b ec		 cmp	 ebp, esp
  00059	e8 00 00 00 00	 call	 __RTC_CheckEsp
  0005e	8b e5		 mov	 esp, ebp
  00060	5d		 pop	 ebp
  00061	c2 04 00	 ret	 4
?node@ChannelBinder@Moo@@QBE?AV?$SmartPointer@VNode@Moo@@@@XZ ENDP ; Moo::ChannelBinder::node
_TEXT	ENDS
PUBLIC	??0?$_Ranit@UBlendedAnimation@Moo@@HPBU12@ABU12@@std@@QAE@ABU01@@Z ; std::_Ranit<Moo::BlendedAnimation,int,Moo::BlendedAnimation const *,Moo::BlendedAnimation const &>::_Ranit<Moo::BlendedAnimation,int,Moo::BlendedAnimation const *,Moo::BlendedAnimation const &>
; Function compile flags: /Odtp /RTCsu /ZI
;	COMDAT ??0?$_Vector_const_iterator@UBlendedAnimation@Moo@@V?$allocator@UBlendedAnimation@Moo@@@std@@@std@@QAE@ABV01@@Z
_TEXT	SEGMENT
_this$ = -8						; size = 4
___that$ = 8						; size = 4
??0?$_Vector_const_iterator@UBlendedAnimation@Moo@@V?$allocator@UBlendedAnimation@Moo@@@std@@@std@@QAE@ABV01@@Z PROC ; std::_Vector_const_iterator<Moo::BlendedAnimation,std::allocator<Moo::BlendedAnimation> >::_Vector_const_iterator<Moo::BlendedAnimation,std::allocator<Moo::BlendedAnimation> >, COMDAT
; _this$ = ecx
  00000	55		 push	 ebp
  00001	8b ec		 mov	 ebp, esp
  00003	81 ec cc 00 00
	00		 sub	 esp, 204		; 000000ccH
  00009	53		 push	 ebx
  0000a	56		 push	 esi
  0000b	57		 push	 edi
  0000c	51		 push	 ecx
  0000d	8d bd 34 ff ff
	ff		 lea	 edi, DWORD PTR [ebp-204]
  00013	b9 33 00 00 00	 mov	 ecx, 51			; 00000033H
  00018	b8 cc cc cc cc	 mov	 eax, -858993460		; ccccccccH
  0001d	f3 ab		 rep stosd
  0001f	59		 pop	 ecx
  00020	89 4d f8	 mov	 DWORD PTR _this$[ebp], ecx
  00023	8b 45 08	 mov	 eax, DWORD PTR ___that$[ebp]
  00026	50		 push	 eax
  00027	8b 4d f8	 mov	 ecx, DWORD PTR _this$[ebp]
  0002a	e8 00 00 00 00	 call	 ??0?$_Ranit@UBlendedAnimation@Moo@@HPBU12@ABU12@@std@@QAE@ABU01@@Z
  0002f	8b 45 f8	 mov	 eax, DWORD PTR _this$[ebp]
  00032	8b 4d 08	 mov	 ecx, DWORD PTR ___that$[ebp]
  00035	8b 51 08	 mov	 edx, DWORD PTR [ecx+8]
  00038	89 50 08	 mov	 DWORD PTR [eax+8], edx
  0003b	8b 45 f8	 mov	 eax, DWORD PTR _this$[ebp]
  0003e	5f		 pop	 edi
  0003f	5e		 pop	 esi
  00040	5b		 pop	 ebx
  00041	81 c4 cc 00 00
	00		 add	 esp, 204		; 000000ccH
  00047	3b ec		 cmp	 ebp, esp
  00049	e8 00 00 00 00	 call	 __RTC_CheckEsp
  0004e	8b e5		 mov	 esp, ebp
  00050	5d		 pop	 ebp
  00051	c2 04 00	 ret	 4
??0?$_Vector_const_iterator@UBlendedAnimation@Moo@@V?$allocator@UBlendedAnimation@Moo@@@std@@@std@@QAE@ABV01@@Z ENDP ; std::_Vector_const_iterator<Moo::BlendedAnimation,std::allocator<Moo::BlendedAnimation> >::_Vector_const_iterator<Moo::BlendedAnimation,std::allocator<Moo::BlendedAnimation> >
; Function compile flags: /Odtp /RTCsu /ZI
_TEXT	ENDS
;	COMDAT ??1?$_Vector_iterator@VChannelBinder@Moo@@V?$allocator@VChannelBinder@Moo@@@std@@@std@@QAE@XZ
_TEXT	SEGMENT
_this$ = -8						; size = 4
??1?$_Vector_iterator@VChannelBinder@Moo@@V?$allocator@VChannelBinder@Moo@@@std@@@std@@QAE@XZ PROC ; std::_Vector_iterator<Moo::ChannelBinder,std::allocator<Moo::ChannelBinder> >::~_Vector_iterator<Moo::ChannelBinder,std::allocator<Moo::ChannelBinder> >, COMDAT
; _this$ = ecx
  00000	55		 push	 ebp
  00001	8b ec		 mov	 ebp, esp
  00003	81 ec cc 00 00
	00		 sub	 esp, 204		; 000000ccH
  00009	53		 push	 ebx
  0000a	56		 push	 esi
  0000b	57		 push	 edi
  0000c	51		 push	 ecx
  0000d	8d bd 34 ff ff
	ff		 lea	 edi, DWORD PTR [ebp-204]
  00013	b9 33 00 00 00	 mov	 ecx, 51			; 00000033H
  00018	b8 cc cc cc cc	 mov	 eax, -858993460		; ccccccccH
  0001d	f3 ab		 rep stosd
  0001f	59		 pop	 ecx
  00020	89 4d f8	 mov	 DWORD PTR _this$[ebp], ecx
  00023	8b 4d f8	 mov	 ecx, DWORD PTR _this$[ebp]
  00026	e8 00 00 00 00	 call	 ??1?$_Vector_const_iterator@VChannelBinder@Moo@@V?$allocator@VChannelBinder@Moo@@@std@@@std@@QAE@XZ
  0002b	5f		 pop	 edi
  0002c	5e		 pop	 esi
  0002d	5b		 pop	 ebx
  0002e	81 c4 cc 00 00
	00		 add	 esp, 204		; 000000ccH
  00034	3b ec		 cmp	 ebp, esp
  00036	e8 00 00 00 00	 call	 __RTC_CheckEsp
  0003b	8b e5		 mov	 esp, ebp
  0003d	5d		 pop	 ebp
  0003e	c3		 ret	 0
??1?$_Vector_iterator@VChannelBinder@Moo@@V?$allocator@VChannelBinder@Moo@@@std@@@std@@QAE@XZ ENDP ; std::_Vector_iterator<Moo::ChannelBinder,std::allocator<Moo::ChannelBinder> >::~_Vector_iterator<Moo::ChannelBinder,std::allocator<Moo::ChannelBinder> >
_TEXT	ENDS
PUBLIC	??4?$_Ranit@VChannelBinder@Moo@@HPBV12@ABV12@@std@@QAEAAU01@ABU01@@Z ; std::_Ranit<Moo::ChannelBinder,int,Moo::ChannelBinder const *,Moo::ChannelBinder const &>::operator=
; Function compile flags: /Odtp /RTCsu /ZI
;	COMDAT ??4?$_Vector_const_iterator@VChannelBinder@Moo@@V?$allocator@VChannelBinder@Moo@@@std@@@std@@QAEAAV01@ABV01@@Z
_TEXT	SEGMENT
_this$ = -8						; size = 4
___that$ = 8						; size = 4
??4?$_Vector_const_iterator@VChannelBinder@Moo@@V?$allocator@VChannelBinder@Moo@@@std@@@std@@QAEAAV01@ABV01@@Z PROC ; std::_Vector_const_iterator<Moo::ChannelBinder,std::allocator<Moo::ChannelBinder> >::operator=, COMDAT
; _this$ = ecx
  00000	55		 push	 ebp
  00001	8b ec		 mov	 ebp, esp
  00003	81 ec cc 00 00
	00		 sub	 esp, 204		; 000000ccH
  00009	53		 push	 ebx
  0000a	56		 push	 esi
  0000b	57		 push	 edi
  0000c	51		 push	 ecx
  0000d	8d bd 34 ff ff
	ff		 lea	 edi, DWORD PTR [ebp-204]
  00013	b9 33 00 00 00	 mov	 ecx, 51			; 00000033H
  00018	b8 cc cc cc cc	 mov	 eax, -858993460		; ccccccccH
  0001d	f3 ab		 rep stosd
  0001f	59		 pop	 ecx
  00020	89 4d f8	 mov	 DWORD PTR _this$[ebp], ecx
  00023	8b 45 08	 mov	 eax, DWORD PTR ___that$[ebp]
  00026	50		 push	 eax
  00027	8b 4d f8	 mov	 ecx, DWORD PTR _this$[ebp]
  0002a	e8 00 00 00 00	 call	 ??4?$_Ranit@VChannelBinder@Moo@@HPBV12@ABV12@@std@@QAEAAU01@ABU01@@Z
  0002f	8b 45 f8	 mov	 eax, DWORD PTR _this$[ebp]
  00032	8b 4d 08	 mov	 ecx, DWORD PTR ___that$[ebp]
  00035	8b 51 08	 mov	 edx, DWORD PTR [ecx+8]
  00038	89 50 08	 mov	 DWORD PTR [eax+8], edx
  0003b	8b 45 f8	 mov	 eax, DWORD PTR _this$[ebp]
  0003e	5f		 pop	 edi
  0003f	5e		 pop	 esi
  00040	5b		 pop	 ebx
  00041	81 c4 cc 00 00
	00		 add	 esp, 204		; 000000ccH
  00047	3b ec		 cmp	 ebp, esp
  00049	e8 00 00 00 00	 call	 __RTC_CheckEsp
  0004e	8b e5		 mov	 esp, ebp
  00050	5d		 pop	 ebp
  00051	c2 04 00	 ret	 4
??4?$_Vector_const_iterator@VChannelBinder@Moo@@V?$allocator@VChannelBinder@Moo@@@std@@@std@@QAEAAV01@ABV01@@Z ENDP ; std::_Vector_const_iterator<Moo::ChannelBinder,std::allocator<Moo::ChannelBinder> >::operator=
_TEXT	ENDS
PUBLIC	??0_Iterator_base@std@@QAE@ABV01@@Z		; std::_Iterator_base::_Iterator_base
; Function compile flags: /Odtp /RTCsu /ZI
;	COMDAT ??0?$_Ranit@UBlendedAnimation@Moo@@HPBU12@ABU12@@std@@QAE@ABU01@@Z
_TEXT	SEGMENT
_this$ = -8						; size = 4
___that$ = 8						; size = 4
??0?$_Ranit@UBlendedAnimation@Moo@@HPBU12@ABU12@@std@@QAE@ABU01@@Z PROC ; std::_Ranit<Moo::BlendedAnimation,int,Moo::BlendedAnimation const *,Moo::BlendedAnimation const &>::_Ranit<Moo::BlendedAnimation,int,Moo::BlendedAnimation const *,Moo::BlendedAnimation const &>, COMDAT
; _this$ = ecx
  00000	55		 push	 ebp
  00001	8b ec		 mov	 ebp, esp
  00003	81 ec cc 00 00
	00		 sub	 esp, 204		; 000000ccH
  00009	53		 push	 ebx
  0000a	56		 push	 esi
  0000b	57		 push	 edi
  0000c	51		 push	 ecx
  0000d	8d bd 34 ff ff
	ff		 lea	 edi, DWORD PTR [ebp-204]
  00013	b9 33 00 00 00	 mov	 ecx, 51			; 00000033H
  00018	b8 cc cc cc cc	 mov	 eax, -858993460		; ccccccccH
  0001d	f3 ab		 rep stosd
  0001f	59		 pop	 ecx
  00020	89 4d f8	 mov	 DWORD PTR _this$[ebp], ecx
  00023	8b 45 08	 mov	 eax, DWORD PTR ___that$[ebp]
  00026	50		 push	 eax
  00027	8b 4d f8	 mov	 ecx, DWORD PTR _this$[ebp]
  0002a	e8 00 00 00 00	 call	 ??0_Iterator_base@std@@QAE@ABV01@@Z ; std::_Iterator_base::_Iterator_base
  0002f	8b 45 f8	 mov	 eax, DWORD PTR _this$[ebp]
  00032	5f		 pop	 edi
  00033	5e		 pop	 esi
  00034	5b		 pop	 ebx
  00035	81 c4 cc 00 00
	00		 add	 esp, 204		; 000000ccH
  0003b	3b ec		 cmp	 ebp, esp
  0003d	e8 00 00 00 00	 call	 __RTC_CheckEsp
  00042	8b e5		 mov	 esp, ebp
  00044	5d		 pop	 ebp
  00045	c2 04 00	 ret	 4
??0?$_Ranit@UBlendedAnimation@Moo@@HPBU12@ABU12@@std@@QAE@ABU01@@Z ENDP ; std::_Ranit<Moo::BlendedAnimation,int,Moo::BlendedAnimation const *,Moo::BlendedAnimation const &>::_Ranit<Moo::BlendedAnimation,int,Moo::BlendedAnimation const *,Moo::BlendedAnimation const &>
_TEXT	ENDS
PUBLIC	??4_Iterator_base@std@@QAEAAV01@ABV01@@Z	; std::_Iterator_base::operator=
; Function compile flags: /Odtp /RTCsu /ZI
;	COMDAT ??4?$_Ranit@VChannelBinder@Moo@@HPBV12@ABV12@@std@@QAEAAU01@ABU01@@Z
_TEXT	SEGMENT
_this$ = -8						; size = 4
___that$ = 8						; size = 4
??4?$_Ranit@VChannelBinder@Moo@@HPBV12@ABV12@@std@@QAEAAU01@ABU01@@Z PROC ; std::_Ranit<Moo::ChannelBinder,int,Moo::ChannelBinder const *,Moo::ChannelBinder const &>::operator=, COMDAT
; _this$ = ecx
  00000	55		 push	 ebp
  00001	8b ec		 mov	 ebp, esp
  00003	81 ec cc 00 00
	00		 sub	 esp, 204		; 000000ccH
  00009	53		 push	 ebx
  0000a	56		 push	 esi
  0000b	57		 push	 edi
  0000c	51		 push	 ecx
  0000d	8d bd 34 ff ff
	ff		 lea	 edi, DWORD PTR [ebp-204]
  00013	b9 33 00 00 00	 mov	 ecx, 51			; 00000033H
  00018	b8 cc cc cc cc	 mov	 eax, -858993460		; ccccccccH
  0001d	f3 ab		 rep stosd
  0001f	59		 pop	 ecx
  00020	89 4d f8	 mov	 DWORD PTR _this$[ebp], ecx
  00023	8b 45 08	 mov	 eax, DWORD PTR ___that$[ebp]
  00026	50		 push	 eax
  00027	8b 4d f8	 mov	 ecx, DWORD PTR _this$[ebp]
  0002a	e8 00 00 00 00	 call	 ??4_Iterator_base@std@@QAEAAV01@ABV01@@Z ; std::_Iterator_base::operator=
  0002f	8b 45 f8	 mov	 eax, DWORD PTR _this$[ebp]
  00032	5f		 pop	 edi
  00033	5e		 pop	 esi
  00034	5b		 pop	 ebx
  00035	81 c4 cc 00 00
	00		 add	 esp, 204		; 000000ccH
  0003b	3b ec		 cmp	 ebp, esp
  0003d	e8 00 00 00 00	 call	 __RTC_CheckEsp
  00042	8b e5		 mov	 esp, ebp
  00044	5d		 pop	 ebp
  00045	c2 04 00	 ret	 4
??4?$_Ranit@VChannelBinder@Moo@@HPBV12@ABV12@@std@@QAEAAU01@ABU01@@Z ENDP ; std::_Ranit<Moo::ChannelBinder,int,Moo::ChannelBinder const *,Moo::ChannelBinder const &>::operator=
_TEXT	ENDS
PUBLIC	?output@BlendTransform@@QBEXAAVMatrix@@@Z	; BlendTransform::output
PUBLIC	??$max@M@@YAABMABM0@Z				; max<float>
PUBLIC	??$min@M@@YAABMABM0@Z				; min<float>
PUBLIC	__real@4020000000000000
PUBLIC	??C?$SmartPointer@VStreamedAnimation@Moo@@@@QBEPAVStreamedAnimation@Moo@@XZ ; SmartPointer<Moo::StreamedAnimation>::operator->
PUBLIC	??B?$ConstSmartPointer@VStreamedAnimation@Moo@@@@QBEPQ0@PBVStreamedAnimation@Moo@@XZ ; ConstSmartPointer<Moo::StreamedAnimation>::operator Moo::StreamedAnimation const * ConstSmartPointer<Moo::StreamedAnimation>::*
PUBLIC	?__LINE__Var@?1??animate@Animation@Moo@@QAEXHMMPBV?$vector@MV?$allocator@M@std@@@std@@@Z@4JA ; `Moo::Animation::animate'::`2'::__LINE__Var
PUBLIC	?animate@Animation@Moo@@QAEXHMMPBV?$vector@MV?$allocator@M@std@@@std@@@Z ; Moo::Animation::animate
EXTRN	?preMultiply@Matrix@@QAEXABV1@@Z:PROC		; Matrix::preMultiply
EXTRN	??0Matrix@@QAE@XZ:PROC				; Matrix::Matrix
EXTRN	?touch@StreamedAnimation@Moo@@QAEXM@Z:PROC	; Moo::StreamedAnimation::touch
;	COMDAT __real@4020000000000000
; File e:\bw191\src\lib\moo\animation.cpp
CONST	SEGMENT
__real@4020000000000000 DQ 04020000000000000r	; 8
CONST	ENDS
;	COMDAT ?__LINE__Var@?1??animate@Animation@Moo@@QAEXHMMPBV?$vector@MV?$allocator@M@std@@@std@@@Z@4JA
_DATA	SEGMENT
?__LINE__Var@?1??animate@Animation@Moo@@QAEXHMMPBV?$vector@MV?$allocator@M@std@@@std@@@Z@4JA DD 012fH ; `Moo::Animation::animate'::`2'::__LINE__Var
_DATA	ENDS
;	COMDAT xdata$x
xdata$x	SEGMENT
__ehfuncinfo$?animate@Animation@Moo@@QAEXHMMPBV?$vector@MV?$allocator@M@std@@@std@@@Z DD 019930522H
	DD	0aH
	DD	FLAT:__unwindtable$?animate@Animation@Moo@@QAEXHMMPBV?$vector@MV?$allocator@M@std@@@std@@@Z
	DD	2 DUP(00H)
	DD	2 DUP(00H)
	DD	00H
	DD	01H
__unwindtable$?animate@Animation@Moo@@QAEXHMMPBV?$vector@MV?$allocator@M@std@@@std@@@Z DD 0ffffffffH
	DD	FLAT:__unwindfunclet$?animate@Animation@Moo@@QAEXHMMPBV?$vector@MV?$allocator@M@std@@@std@@@Z$0
	DD	00H
	DD	FLAT:__unwindfunclet$?animate@Animation@Moo@@QAEXHMMPBV?$vector@MV?$allocator@M@std@@@std@@@Z$1
	DD	01H
	DD	FLAT:__unwindfunclet$?animate@Animation@Moo@@QAEXHMMPBV?$vector@MV?$allocator@M@std@@@std@@@Z$2
	DD	02H
	DD	FLAT:__unwindfunclet$?animate@Animation@Moo@@QAEXHMMPBV?$vector@MV?$allocator@M@std@@@std@@@Z$3
	DD	02H
	DD	FLAT:__unwindfunclet$?animate@Animation@Moo@@QAEXHMMPBV?$vector@MV?$allocator@M@std@@@std@@@Z$4
	DD	02H
	DD	FLAT:__unwindfunclet$?animate@Animation@Moo@@QAEXHMMPBV?$vector@MV?$allocator@M@std@@@std@@@Z$5
	DD	05H
	DD	FLAT:__unwindfunclet$?animate@Animation@Moo@@QAEXHMMPBV?$vector@MV?$allocator@M@std@@@std@@@Z$6
	DD	05H
	DD	FLAT:__unwindfunclet$?animate@Animation@Moo@@QAEXHMMPBV?$vector@MV?$allocator@M@std@@@std@@@Z$7
	DD	05H
	DD	FLAT:__unwindfunclet$?animate@Animation@Moo@@QAEXHMMPBV?$vector@MV?$allocator@M@std@@@std@@@Z$8
	DD	05H
	DD	FLAT:__unwindfunclet$?animate@Animation@Moo@@QAEXHMMPBV?$vector@MV?$allocator@M@std@@@std@@@Z$9
; Function compile flags: /Odtp /RTCsu /ZI
xdata$x	ENDS
;	COMDAT ?animate@Animation@Moo@@QAEXHMMPBV?$vector@MV?$allocator@M@std@@@std@@@Z
_TEXT	SEGMENT
tv444 = -624						; size = 4
tv267 = -624						; size = 4
tv211 = -624						; size = 4
tv194 = -624						; size = 4
tv307 = -620						; size = 4
tv305 = -620						; size = 4
tv303 = -620						; size = 4
tv300 = -620						; size = 4
tv297 = -620						; size = 4
tv295 = -620						; size = 4
tv173 = -620						; size = 8
tv405 = -616						; size = 4
tv309 = -616						; size = 4
tv308 = -616						; size = 4
tv178 = -616						; size = 4
tv142 = -616						; size = 4
tv139 = -616						; size = 4
tv65 = -616						; size = 4
$T144347 = -608						; size = 4
$T144348 = -596						; size = 4
$T144349 = -584						; size = 4
$T144350 = -572						; size = 12
$T144351 = -549						; size = 1
$T144352 = -540						; size = 12
$T144355 = -520						; size = 4
$T144356 = -508						; size = 4
$T144357 = -496						; size = 4
$T144358 = -484						; size = 40
_mtemp$137061 = -244					; size = 64
_oldBr$137059 = -172					; size = 4
_sumBr$137054 = -160					; size = 4
_oldBr$137053 = -148					; size = 4
_n$137047 = -136					; size = 4
_newBr$137046 = -124					; size = 4
_chanIndex$ = -112					; size = 4
_chan$ = -100						; size = 12
_channelTransform$ = -80				; size = 40
__BW_GUARD$ = -29					; size = 1
_this$ = -20						; size = 4
__$EHRec$ = -12						; size = 12
_blendCookie$ = 8					; size = 4
_frame$ = 12						; size = 4
_blendRatio$ = 16					; size = 4
_pAlphas$ = 20						; size = 4
?animate@Animation@Moo@@QAEXHMMPBV?$vector@MV?$allocator@M@std@@@std@@@Z PROC ; Moo::Animation::animate, COMDAT
; _this$ = ecx
; Line 303
  00000	55		 push	 ebp
  00001	8b ec		 mov	 ebp, esp
  00003	6a ff		 push	 -1
  00005	68 00 00 00 00	 push	 __ehhandler$?animate@Animation@Moo@@QAEXHMMPBV?$vector@MV?$allocator@M@std@@@std@@@Z
  0000a	64 a1 00 00 00
	00		 mov	 eax, DWORD PTR fs:0
  00010	50		 push	 eax
  00011	81 ec 64 02 00
	00		 sub	 esp, 612		; 00000264H
  00017	53		 push	 ebx
  00018	56		 push	 esi
  00019	57		 push	 edi
  0001a	51		 push	 ecx
  0001b	8d bd 90 fd ff
	ff		 lea	 edi, DWORD PTR [ebp-624]
  00021	b9 99 00 00 00	 mov	 ecx, 153		; 00000099H
  00026	b8 cc cc cc cc	 mov	 eax, -858993460		; ccccccccH
  0002b	f3 ab		 rep stosd
  0002d	59		 pop	 ecx
  0002e	a1 00 00 00 00	 mov	 eax, DWORD PTR ___security_cookie
  00033	33 c5		 xor	 eax, ebp
  00035	50		 push	 eax
  00036	8d 45 f4	 lea	 eax, DWORD PTR __$EHRec$[ebp]
  00039	64 a3 00 00 00
	00		 mov	 DWORD PTR fs:0, eax
  0003f	89 4d ec	 mov	 DWORD PTR _this$[ebp], ecx
; Line 304
  00042	a1 00 00 00 00	 mov	 eax, DWORD PTR ?__LINE__Var@?1??animate@Animation@Moo@@QAEXHMMPBV?$vector@MV?$allocator@M@std@@@std@@@Z@4JA
  00047	83 c0 01	 add	 eax, 1
  0004a	50		 push	 eax
  0004b	68 00 00 00 00	 push	 OFFSET ??_C@_0CD@PMFAICH@e?3?2bw191?2src?2lib?2moo?2animation?4c@
  00050	68 00 00 00 00	 push	 OFFSET ??_C@_0BI@FHKHAKB@Moo?3?3Animation?3?3animate?$AA@
  00055	8d 4d e3	 lea	 ecx, DWORD PTR __BW_GUARD$[ebp]
  00058	e8 00 00 00 00	 call	 ??0ScopedStackTrack@@QAE@PBD0I@Z ; ScopedStackTrack::ScopedStackTrack
  0005d	c7 45 fc 00 00
	00 00		 mov	 DWORD PTR __$EHRec$[ebp+8], 0
; Line 305
  00064	8b 4d ec	 mov	 ecx, DWORD PTR _this$[ebp]
  00067	83 c1 64	 add	 ecx, 100		; 00000064H
  0006a	e8 00 00 00 00	 call	 ??B?$ConstSmartPointer@VStreamedAnimation@Moo@@@@QBEPQ0@PBVStreamedAnimation@Moo@@XZ ; ConstSmartPointer<Moo::StreamedAnimation>::operator Moo::StreamedAnimation const * ConstSmartPointer<Moo::StreamedAnimation>::*
  0006f	83 f8 ff	 cmp	 eax, -1
  00072	0f 84 a1 00 00
	00		 je	 $LN12@animate@4
; Line 307
  00078	51		 push	 ecx
  00079	d9 45 0c	 fld	 DWORD PTR _frame$[ebp]
  0007c	d9 1c 24	 fstp	 DWORD PTR [esp]
  0007f	8b 4d ec	 mov	 ecx, DWORD PTR _this$[ebp]
  00082	83 c1 64	 add	 ecx, 100		; 00000064H
  00085	e8 00 00 00 00	 call	 ??C?$SmartPointer@VStreamedAnimation@Moo@@@@QBEPAVStreamedAnimation@Moo@@XZ ; SmartPointer<Moo::StreamedAnimation>::operator->
  0008a	8b c8		 mov	 ecx, eax
  0008c	e8 00 00 00 00	 call	 ?touch@StreamedAnimation@Moo@@QAEXM@Z ; Moo::StreamedAnimation::touch
; Line 308
  00091	d9 45 0c	 fld	 DWORD PTR _frame$[ebp]
  00094	dc 05 00 00 00
	00		 fadd	 QWORD PTR __real@4020000000000000
  0009a	d9 9d a0 fd ff
	ff		 fstp	 DWORD PTR $T144347[ebp]
  000a0	8d 85 a0 fd ff
	ff		 lea	 eax, DWORD PTR $T144347[ebp]
  000a6	50		 push	 eax
  000a7	8b 4d ec	 mov	 ecx, DWORD PTR _this$[ebp]
  000aa	83 c1 08	 add	 ecx, 8
  000ad	51		 push	 ecx
  000ae	e8 00 00 00 00	 call	 ??$min@M@@YAABMABM0@Z	; min<float>
  000b3	83 c4 04	 add	 esp, 4
  000b6	d9 00		 fld	 DWORD PTR [eax]
  000b8	d9 1c 24	 fstp	 DWORD PTR [esp]
  000bb	8b 4d ec	 mov	 ecx, DWORD PTR _this$[ebp]
  000be	83 c1 64	 add	 ecx, 100		; 00000064H
  000c1	e8 00 00 00 00	 call	 ??C?$SmartPointer@VStreamedAnimation@Moo@@@@QBEPAVStreamedAnimation@Moo@@XZ ; SmartPointer<Moo::StreamedAnimation>::operator->
  000c6	8b c8		 mov	 ecx, eax
  000c8	e8 00 00 00 00	 call	 ?touch@StreamedAnimation@Moo@@QAEXM@Z ; Moo::StreamedAnimation::touch
; Line 309
  000cd	d9 45 0c	 fld	 DWORD PTR _frame$[ebp]
  000d0	dc 25 00 00 00
	00		 fsub	 QWORD PTR __real@4020000000000000
  000d6	d9 9d ac fd ff
	ff		 fstp	 DWORD PTR $T144348[ebp]
  000dc	f3 0f 10 05 00
	00 00 00	 movss	 xmm0, DWORD PTR __real@00000000
  000e4	f3 0f 11 85 b8
	fd ff ff	 movss	 DWORD PTR $T144349[ebp], xmm0
  000ec	8d 85 ac fd ff
	ff		 lea	 eax, DWORD PTR $T144348[ebp]
  000f2	50		 push	 eax
  000f3	8d 8d b8 fd ff
	ff		 lea	 ecx, DWORD PTR $T144349[ebp]
  000f9	51		 push	 ecx
  000fa	e8 00 00 00 00	 call	 ??$max@M@@YAABMABM0@Z	; max<float>
  000ff	83 c4 04	 add	 esp, 4
  00102	d9 00		 fld	 DWORD PTR [eax]
  00104	d9 1c 24	 fstp	 DWORD PTR [esp]
  00107	8b 4d ec	 mov	 ecx, DWORD PTR _this$[ebp]
  0010a	83 c1 64	 add	 ecx, 100		; 00000064H
  0010d	e8 00 00 00 00	 call	 ??C?$SmartPointer@VStreamedAnimation@Moo@@@@QBEPAVStreamedAnimation@Moo@@XZ ; SmartPointer<Moo::StreamedAnimation>::operator->
  00112	8b c8		 mov	 ecx, eax
  00114	e8 00 00 00 00	 call	 ?touch@StreamedAnimation@Moo@@QAEXM@Z ; Moo::StreamedAnimation::touch
$LN12@animate@4:
; Line 312
  00119	d9 45 10	 fld	 DWORD PTR _blendRatio$[ebp]
  0011c	d9 ee		 fldz
  0011e	df f1		 fcomip	 ST(1)
  00120	dd d8		 fstp	 ST(0)
  00122	72 14		 jb	 SHORT $LN11@animate@4
  00124	c7 45 fc ff ff
	ff ff		 mov	 DWORD PTR __$EHRec$[ebp+8], -1
  0012b	8d 4d e3	 lea	 ecx, DWORD PTR __BW_GUARD$[ebp]
  0012e	e8 00 00 00 00	 call	 ??1ScopedStackTrack@@QAE@XZ ; ScopedStackTrack::~ScopedStackTrack
  00133	e9 71 04 00 00	 jmp	 $LN13@animate@4
$LN11@animate@4:
; Line 314
  00138	8d 4d b0	 lea	 ecx, DWORD PTR _channelTransform$[ebp]
  0013b	e8 00 00 00 00	 call	 ??0BlendTransform@@QAE@XZ ; BlendTransform::BlendTransform
  00140	c6 45 fc 01	 mov	 BYTE PTR __$EHRec$[ebp+8], 1
; Line 316
  00144	8d 4d 9c	 lea	 ecx, DWORD PTR _chan$[ebp]
  00147	e8 00 00 00 00	 call	 ??0?$_Vector_const_iterator@VChannelBinder@Moo@@V?$allocator@VChannelBinder@Moo@@@std@@@std@@QAE@XZ ; std::_Vector_const_iterator<Moo::ChannelBinder,std::allocator<Moo::ChannelBinder> >::_Vector_const_iterator<Moo::ChannelBinder,std::allocator<Moo::ChannelBinder> >
  0014c	c6 45 fc 02	 mov	 BYTE PTR __$EHRec$[ebp+8], 2
; Line 319
  00150	8d 85 c4 fd ff
	ff		 lea	 eax, DWORD PTR $T144350[ebp]
  00156	50		 push	 eax
  00157	8b 4d ec	 mov	 ecx, DWORD PTR _this$[ebp]
  0015a	83 c1 0c	 add	 ecx, 12			; 0000000cH
  0015d	e8 00 00 00 00	 call	 ?begin@?$vector@VChannelBinder@Moo@@V?$allocator@VChannelBinder@Moo@@@std@@@std@@QAE?AV?$_Vector_iterator@VChannelBinder@Moo@@V?$allocator@VChannelBinder@Moo@@@std@@@2@XZ ; std::vector<Moo::ChannelBinder,std::allocator<Moo::ChannelBinder> >::begin
  00162	89 85 98 fd ff
	ff		 mov	 DWORD PTR tv142[ebp], eax
  00168	8b 8d 98 fd ff
	ff		 mov	 ecx, DWORD PTR tv142[ebp]
  0016e	89 8d 94 fd ff
	ff		 mov	 DWORD PTR tv295[ebp], ecx
  00174	c6 45 fc 03	 mov	 BYTE PTR __$EHRec$[ebp+8], 3
  00178	8b 95 94 fd ff
	ff		 mov	 edx, DWORD PTR tv295[ebp]
  0017e	52		 push	 edx
  0017f	8d 4d 9c	 lea	 ecx, DWORD PTR _chan$[ebp]
  00182	e8 00 00 00 00	 call	 ??4?$_Vector_const_iterator@VChannelBinder@Moo@@V?$allocator@VChannelBinder@Moo@@@std@@@std@@QAEAAV01@ABV01@@Z
  00187	c7 45 90 00 00
	00 00		 mov	 DWORD PTR _chanIndex$[ebp], 0
  0018e	c6 45 fc 02	 mov	 BYTE PTR __$EHRec$[ebp+8], 2
  00192	8d 8d c4 fd ff
	ff		 lea	 ecx, DWORD PTR $T144350[ebp]
  00198	e8 00 00 00 00	 call	 ??1?$_Vector_iterator@VChannelBinder@Moo@@V?$allocator@VChannelBinder@Moo@@@std@@@std@@QAE@XZ
; Line 320
  0019d	eb 11		 jmp	 SHORT $LN10@animate@4
$LN9@animate@4:
; Line 321
  0019f	8d 4d 9c	 lea	 ecx, DWORD PTR _chan$[ebp]
  001a2	e8 00 00 00 00	 call	 ??E?$_Vector_const_iterator@VChannelBinder@Moo@@V?$allocator@VChannelBinder@Moo@@@std@@@std@@QAEAAV01@XZ ; std::_Vector_const_iterator<Moo::ChannelBinder,std::allocator<Moo::ChannelBinder> >::operator++
  001a7	8b 45 90	 mov	 eax, DWORD PTR _chanIndex$[ebp]
  001aa	83 c0 01	 add	 eax, 1
  001ad	89 45 90	 mov	 DWORD PTR _chanIndex$[ebp], eax
$LN10@animate@4:
  001b0	8d 85 e4 fd ff
	ff		 lea	 eax, DWORD PTR $T144352[ebp]
  001b6	50		 push	 eax
  001b7	8b 4d ec	 mov	 ecx, DWORD PTR _this$[ebp]
  001ba	83 c1 0c	 add	 ecx, 12			; 0000000cH
  001bd	e8 00 00 00 00	 call	 ?end@?$vector@VChannelBinder@Moo@@V?$allocator@VChannelBinder@Moo@@@std@@@std@@QAE?AV?$_Vector_iterator@VChannelBinder@Moo@@V?$allocator@VChannelBinder@Moo@@@std@@@2@XZ ; std::vector<Moo::ChannelBinder,std::allocator<Moo::ChannelBinder> >::end
  001c2	89 85 98 fd ff
	ff		 mov	 DWORD PTR tv139[ebp], eax
  001c8	8b 8d 98 fd ff
	ff		 mov	 ecx, DWORD PTR tv139[ebp]
  001ce	89 8d 94 fd ff
	ff		 mov	 DWORD PTR tv297[ebp], ecx
  001d4	c6 45 fc 04	 mov	 BYTE PTR __$EHRec$[ebp+8], 4
  001d8	8b 95 94 fd ff
	ff		 mov	 edx, DWORD PTR tv297[ebp]
  001de	52		 push	 edx
  001df	8d 4d 9c	 lea	 ecx, DWORD PTR _chan$[ebp]
  001e2	e8 00 00 00 00	 call	 ??9?$_Vector_const_iterator@VChannelBinder@Moo@@V?$allocator@VChannelBinder@Moo@@@std@@@std@@QBE_NABV01@@Z ; std::_Vector_const_iterator<Moo::ChannelBinder,std::allocator<Moo::ChannelBinder> >::operator!=
  001e7	88 85 db fd ff
	ff		 mov	 BYTE PTR $T144351[ebp], al
  001ed	c6 45 fc 02	 mov	 BYTE PTR __$EHRec$[ebp+8], 2
  001f1	8d 8d e4 fd ff
	ff		 lea	 ecx, DWORD PTR $T144352[ebp]
  001f7	e8 00 00 00 00	 call	 ??1?$_Vector_iterator@VChannelBinder@Moo@@V?$allocator@VChannelBinder@Moo@@@std@@@std@@QAE@XZ
  001fc	0f b6 85 db fd
	ff ff		 movzx	 eax, BYTE PTR $T144351[ebp]
  00203	85 c0		 test	 eax, eax
  00205	0f 84 77 03 00
	00		 je	 $LN8@animate@4
; Line 324
  0020b	83 7d 14 00	 cmp	 DWORD PTR _pAlphas$[ebp], 0
  0020f	75 0b		 jne	 SHORT $LN15@animate@4
  00211	d9 45 10	 fld	 DWORD PTR _blendRatio$[ebp]
  00214	dd 9d 94 fd ff
	ff		 fstp	 QWORD PTR tv173[ebp]
  0021a	eb 17		 jmp	 SHORT $LN16@animate@4
$LN15@animate@4:
  0021c	8b 45 90	 mov	 eax, DWORD PTR _chanIndex$[ebp]
  0021f	50		 push	 eax
  00220	8b 4d 14	 mov	 ecx, DWORD PTR _pAlphas$[ebp]
  00223	e8 00 00 00 00	 call	 ??A?$vector@MV?$allocator@M@std@@@std@@QBEABMI@Z ; std::vector<float,std::allocator<float> >::operator[]
  00228	d9 45 10	 fld	 DWORD PTR _blendRatio$[ebp]
  0022b	d8 08		 fmul	 DWORD PTR [eax]
  0022d	dd 9d 94 fd ff
	ff		 fstp	 QWORD PTR tv173[ebp]
$LN16@animate@4:
  00233	dd 85 94 fd ff
	ff		 fld	 QWORD PTR tv173[ebp]
  00239	d9 5d 84	 fstp	 DWORD PTR _newBr$137046[ebp]
; Line 326
  0023c	8d 85 78 ff ff
	ff		 lea	 eax, DWORD PTR _n$137047[ebp]
  00242	50		 push	 eax
  00243	8d 4d 9c	 lea	 ecx, DWORD PTR _chan$[ebp]
  00246	e8 00 00 00 00	 call	 ??C?$_Vector_const_iterator@VChannelBinder@Moo@@V?$allocator@VChannelBinder@Moo@@@std@@@std@@QBEPBVChannelBinder@Moo@@XZ ; std::_Vector_const_iterator<Moo::ChannelBinder,std::allocator<Moo::ChannelBinder> >::operator->
  0024b	8b c8		 mov	 ecx, eax
  0024d	e8 00 00 00 00	 call	 ?node@ChannelBinder@Moo@@QBE?AV?$SmartPointer@VNode@Moo@@@@XZ ; Moo::ChannelBinder::node
  00252	c6 45 fc 05	 mov	 BYTE PTR __$EHRec$[ebp+8], 5
; Line 327
  00256	8d 8d 78 ff ff
	ff		 lea	 ecx, DWORD PTR _n$137047[ebp]
  0025c	e8 00 00 00 00	 call	 ??B?$ConstSmartPointer@VNode@Moo@@@@QBEPQ0@PBVNode@Moo@@XZ ; ConstSmartPointer<Moo::Node>::operator Moo::Node const * ConstSmartPointer<Moo::Node>::*
  00261	83 f8 ff	 cmp	 eax, -1
  00264	0f 85 8a 00 00
	00		 jne	 $LN7@animate@4
; Line 329
  0026a	8d 85 f8 fd ff
	ff		 lea	 eax, DWORD PTR $T144355[ebp]
  00270	50		 push	 eax
  00271	8d 4d 9c	 lea	 ecx, DWORD PTR _chan$[ebp]
  00274	e8 00 00 00 00	 call	 ??C?$_Vector_const_iterator@VChannelBinder@Moo@@V?$allocator@VChannelBinder@Moo@@@std@@@std@@QBEPBVChannelBinder@Moo@@XZ ; std::_Vector_const_iterator<Moo::ChannelBinder,std::allocator<Moo::ChannelBinder> >::operator->
  00279	8b c8		 mov	 ecx, eax
  0027b	e8 00 00 00 00	 call	 ?channel@ChannelBinder@Moo@@QBE?AV?$SmartPointer@VAnimationChannel@Moo@@@@XZ ; Moo::ChannelBinder::channel
  00280	89 85 98 fd ff
	ff		 mov	 DWORD PTR tv178[ebp], eax
  00286	8b 8d 98 fd ff
	ff		 mov	 ecx, DWORD PTR tv178[ebp]
  0028c	89 8d 94 fd ff
	ff		 mov	 DWORD PTR tv300[ebp], ecx
  00292	c6 45 fc 06	 mov	 BYTE PTR __$EHRec$[ebp+8], 6
  00296	8b 8d 94 fd ff
	ff		 mov	 ecx, DWORD PTR tv300[ebp]
  0029c	e8 00 00 00 00	 call	 ??C?$SmartPointer@VAnimationChannel@Moo@@@@QBEPAVAnimationChannel@Moo@@XZ ; SmartPointer<Moo::AnimationChannel>::operator->
  002a1	89 85 90 fd ff
	ff		 mov	 DWORD PTR tv194[ebp], eax
  002a7	8b f4		 mov	 esi, esp
  002a9	51		 push	 ecx
  002aa	d9 45 84	 fld	 DWORD PTR _newBr$137046[ebp]
  002ad	d9 1c 24	 fstp	 DWORD PTR [esp]
  002b0	51		 push	 ecx
  002b1	d9 45 0c	 fld	 DWORD PTR _frame$[ebp]
  002b4	d9 1c 24	 fstp	 DWORD PTR [esp]
  002b7	8b 95 90 fd ff
	ff		 mov	 edx, DWORD PTR tv194[ebp]
  002bd	8b 02		 mov	 eax, DWORD PTR [edx]
  002bf	8b 8d 90 fd ff
	ff		 mov	 ecx, DWORD PTR tv194[ebp]
  002c5	8b 50 10	 mov	 edx, DWORD PTR [eax+16]
  002c8	ff d2		 call	 edx
  002ca	3b f4		 cmp	 esi, esp
  002cc	e8 00 00 00 00	 call	 __RTC_CheckEsp
  002d1	c6 45 fc 05	 mov	 BYTE PTR __$EHRec$[ebp+8], 5
  002d5	8d 8d f8 fd ff
	ff		 lea	 ecx, DWORD PTR $T144355[ebp]
  002db	e8 00 00 00 00	 call	 ??1?$SmartPointer@VAnimationChannel@Moo@@@@QAE@XZ
; Line 330
  002e0	c6 45 fc 02	 mov	 BYTE PTR __$EHRec$[ebp+8], 2
  002e4	8d 8d 78 ff ff
	ff		 lea	 ecx, DWORD PTR _n$137047[ebp]
  002ea	e8 00 00 00 00	 call	 ??1?$SmartPointer@VNode@Moo@@@@QAE@XZ
  002ef	e9 ab fe ff ff	 jmp	 $LN9@animate@4
$LN7@animate@4:
; Line 333
  002f4	d9 ee		 fldz
  002f6	d9 45 84	 fld	 DWORD PTR _newBr$137046[ebp]
  002f9	df f1		 fcomip	 ST(1)
  002fb	dd d8		 fstp	 ST(0)
  002fd	0f 86 2b 01 00
	00		 jbe	 $LN6@animate@4
; Line 335
  00303	8d 85 04 fe ff
	ff		 lea	 eax, DWORD PTR $T144356[ebp]
  00309	50		 push	 eax
  0030a	8d 4d 9c	 lea	 ecx, DWORD PTR _chan$[ebp]
  0030d	e8 00 00 00 00	 call	 ??C?$_Vector_const_iterator@VChannelBinder@Moo@@V?$allocator@VChannelBinder@Moo@@@std@@@std@@QBEPBVChannelBinder@Moo@@XZ ; std::_Vector_const_iterator<Moo::ChannelBinder,std::allocator<Moo::ChannelBinder> >::operator->
  00312	8b c8		 mov	 ecx, eax
  00314	e8 00 00 00 00	 call	 ?channel@ChannelBinder@Moo@@QBE?AV?$SmartPointer@VAnimationChannel@Moo@@@@XZ ; Moo::ChannelBinder::channel
  00319	89 85 98 fd ff
	ff		 mov	 DWORD PTR tv65[ebp], eax
  0031f	8b 8d 98 fd ff
	ff		 mov	 ecx, DWORD PTR tv65[ebp]
  00325	89 8d 94 fd ff
	ff		 mov	 DWORD PTR tv303[ebp], ecx
  0032b	c6 45 fc 07	 mov	 BYTE PTR __$EHRec$[ebp+8], 7
  0032f	8b 8d 94 fd ff
	ff		 mov	 ecx, DWORD PTR tv303[ebp]
  00335	e8 00 00 00 00	 call	 ??C?$SmartPointer@VAnimationChannel@Moo@@@@QBEPAVAnimationChannel@Moo@@XZ ; SmartPointer<Moo::AnimationChannel>::operator->
  0033a	89 85 90 fd ff
	ff		 mov	 DWORD PTR tv211[ebp], eax
  00340	8b f4		 mov	 esi, esp
  00342	8d 55 b0	 lea	 edx, DWORD PTR _channelTransform$[ebp]
  00345	52		 push	 edx
  00346	51		 push	 ecx
  00347	d9 45 0c	 fld	 DWORD PTR _frame$[ebp]
  0034a	d9 1c 24	 fstp	 DWORD PTR [esp]
  0034d	8b 85 90 fd ff
	ff		 mov	 eax, DWORD PTR tv211[ebp]
  00353	8b 10		 mov	 edx, DWORD PTR [eax]
  00355	8b 8d 90 fd ff
	ff		 mov	 ecx, DWORD PTR tv211[ebp]
  0035b	8b 42 04	 mov	 eax, DWORD PTR [edx+4]
  0035e	ff d0		 call	 eax
  00360	3b f4		 cmp	 esi, esp
  00362	e8 00 00 00 00	 call	 __RTC_CheckEsp
  00367	c6 45 fc 05	 mov	 BYTE PTR __$EHRec$[ebp+8], 5
  0036b	8d 8d 04 fe ff
	ff		 lea	 ecx, DWORD PTR $T144356[ebp]
  00371	e8 00 00 00 00	 call	 ??1?$SmartPointer@VAnimationChannel@Moo@@@@QAE@XZ
; Line 337
  00376	8b 45 08	 mov	 eax, DWORD PTR _blendCookie$[ebp]
  00379	50		 push	 eax
  0037a	8d 8d 78 ff ff
	ff		 lea	 ecx, DWORD PTR _n$137047[ebp]
  00380	e8 00 00 00 00	 call	 ??C?$SmartPointer@VNode@Moo@@@@QBEPAVNode@Moo@@XZ ; SmartPointer<Moo::Node>::operator->
  00385	8b c8		 mov	 ecx, eax
  00387	e8 00 00 00 00	 call	 ?blend@Node@Moo@@QAEMH@Z ; Moo::Node::blend
  0038c	d9 9d 6c ff ff
	ff		 fstp	 DWORD PTR _oldBr$137053[ebp]
; Line 338
  00392	d9 85 6c ff ff
	ff		 fld	 DWORD PTR _oldBr$137053[ebp]
  00398	d8 45 84	 fadd	 DWORD PTR _newBr$137046[ebp]
  0039b	d9 9d 60 ff ff
	ff		 fstp	 DWORD PTR _sumBr$137054[ebp]
; Line 340
  003a1	d9 ee		 fldz
  003a3	d9 85 6c ff ff
	ff		 fld	 DWORD PTR _oldBr$137053[ebp]
  003a9	df e9		 fucomip ST(1)
  003ab	dd d8		 fstp	 ST(0)
  003ad	9f		 lahf
  003ae	f6 c4 44	 test	 ah, 68			; 00000044H
  003b1	7a 20		 jp	 SHORT $LN5@animate@4
; Line 342
  003b3	8d 8d 78 ff ff
	ff		 lea	 ecx, DWORD PTR _n$137047[ebp]
  003b9	e8 00 00 00 00	 call	 ??C?$SmartPointer@VNode@Moo@@@@QBEPAVNode@Moo@@XZ ; SmartPointer<Moo::Node>::operator->
  003be	8b c8		 mov	 ecx, eax
  003c0	e8 00 00 00 00	 call	 ?blendTransform@Node@Moo@@QAEAAVBlendTransform@@XZ ; Moo::Node::blendTransform
  003c5	b9 0a 00 00 00	 mov	 ecx, 10			; 0000000aH
  003ca	8d 75 b0	 lea	 esi, DWORD PTR _channelTransform$[ebp]
  003cd	8b f8		 mov	 edi, eax
  003cf	f3 a5		 rep movsd
; Line 344
  003d1	eb 36		 jmp	 SHORT $LN4@animate@4
$LN5@animate@4:
; Line 346
  003d3	8d 45 b0	 lea	 eax, DWORD PTR _channelTransform$[ebp]
  003d6	50		 push	 eax
  003d7	d9 45 84	 fld	 DWORD PTR _newBr$137046[ebp]
  003da	d8 b5 60 ff ff
	ff		 fdiv	 DWORD PTR _sumBr$137054[ebp]
  003e0	d9 9d 98 fd ff
